	.text
	.syntax unified
	.eabi_attribute	67, "2.09"	@ Tag_conformance
	.cpu	cortex-a8
	.eabi_attribute	6, 10	@ Tag_CPU_arch
	.eabi_attribute	7, 65	@ Tag_CPU_arch_profile
	.eabi_attribute	8, 1	@ Tag_ARM_ISA_use
	.eabi_attribute	9, 2	@ Tag_THUMB_ISA_use
	.fpu	neon
	.eabi_attribute	17, 1	@ Tag_ABI_PCS_GOT_use
	.eabi_attribute	20, 2	@ Tag_ABI_FP_denormal
	.eabi_attribute	23, 1	@ Tag_ABI_FP_number_model
	.eabi_attribute	34, 1	@ Tag_CPU_unaligned_access
	.eabi_attribute	24, 1	@ Tag_ABI_align_needed
	.eabi_attribute	25, 1	@ Tag_ABI_align_preserved
	.eabi_attribute	28, 1	@ Tag_ABI_VFP_args
	.eabi_attribute	38, 1	@ Tag_ABI_FP_16bit_format
	.eabi_attribute	18, 4	@ Tag_ABI_PCS_wchar_t
	.eabi_attribute	26, 2	@ Tag_ABI_enum_size
	.eabi_attribute	14, 0	@ Tag_ABI_PCS_R9_use
	.eabi_attribute	68, 1	@ Tag_Virtualization_use
	.file	"/root/Bela/projects/vintage_effect/build/APFliter.bc"
	.file	1 "/usr/bin/../lib/gcc/arm-linux-gnueabihf/6.3.0/../../../../include/arm-linux-gnueabihf/c++/6.3.0/bits" "c++config.h"
	.file	2 "/usr/bin/../lib/gcc/arm-linux-gnueabihf/6.3.0/../../../../include/c++/6.3.0/bits" "cpp_type_traits.h"
	.file	3 "/usr/bin/../lib/gcc/arm-linux-gnueabihf/6.3.0/../../../../include/c++/6.3.0/bits" "alloc_traits.h"
	.file	4 "/usr/bin/../lib/gcc/arm-linux-gnueabihf/6.3.0/../../../../include/c++/6.3.0/ext" "new_allocator.h"
	.file	5 "/usr/bin/../lib/gcc/arm-linux-gnueabihf/6.3.0/../../../../include/arm-linux-gnueabihf/c++/6.3.0/bits" "c++allocator.h"
	.file	6 "/usr/bin/../lib/gcc/arm-linux-gnueabihf/6.3.0/../../../../include/c++/6.3.0/bits" "allocator.h"
	.file	7 "/usr/bin/../lib/gcc/arm-linux-gnueabihf/6.3.0/../../../../include/c++/6.3.0/ext" "alloc_traits.h"
	.file	8 "/usr/bin/../lib/gcc/arm-linux-gnueabihf/6.3.0/../../../../include/c++/6.3.0/bits" "stl_vector.h"
	.file	9 "/usr/bin/../lib/gcc/arm-linux-gnueabihf/6.3.0/../../../../include/c++/6.3.0/bits" "stl_iterator.h"
	.file	10 "/usr/bin/../lib/gcc/arm-linux-gnueabihf/6.3.0/../../../../include/c++/6.3.0" "type_traits"
	.file	11 "/usr/bin/../lib/gcc/arm-linux-gnueabihf/6.3.0/../../../../include/c++/6.3.0/bits" "stl_iterator_base_types.h"
	.file	12 "/usr/include/arm-linux-gnueabihf/bits" "math-finite.h"
	.file	13 "/usr/include/arm-linux-gnueabihf/bits" "mathcalls.h"
	.file	14 "/usr/include/arm-linux-gnueabihf/bits" "mathdef.h"
	.file	15 "/usr/bin/../lib/gcc/arm-linux-gnueabihf/6.3.0/../../../../include/c++/6.3.0/debug" "debug.h"
	.file	16 "/usr/bin/../lib/gcc/arm-linux-gnueabihf/6.3.0/../../../../include/c++/6.3.0/bits" "exception_ptr.h"
	.file	17 "/root/Bela/projects/vintage_effect/build" "APFliter.cpp"
	.globl	_ZN8APFilterC2Ev
	.p2align	2
	.type	_ZN8APFilterC2Ev,%function
_ZN8APFilterC2Ev:                       @ @_ZN8APFilterC2Ev
.Lfunc_begin0:
	.file	18 "/root/Bela/projects/vintage_effect" "APFliter.cpp"
	.loc	18 8 0                  @ /root/Bela/projects/vintage_effect/APFliter.cpp:8:0
	.fnstart
	.cfi_startproc
@ BB#0:                                 @ %.lr.ph
	.save	{r4, r5, r6, r7, r8, r9, r10, r11, lr}
	push	{r4, r5, r6, r7, r8, r9, r10, r11, lr}
.Ltmp12:
	.cfi_def_cfa_offset 36
.Ltmp13:
	.cfi_offset lr, -4
.Ltmp14:
	.cfi_offset r11, -8
.Ltmp15:
	.cfi_offset r10, -12
.Ltmp16:
	.cfi_offset r9, -16
.Ltmp17:
	.cfi_offset r8, -20
.Ltmp18:
	.cfi_offset r7, -24
.Ltmp19:
	.cfi_offset r6, -28
.Ltmp20:
	.cfi_offset r5, -32
.Ltmp21:
	.cfi_offset r4, -36
	.setfp	r11, sp, #28
	add	r11, sp, #28
.Ltmp22:
	.cfi_def_cfa r11, 8
	.pad	#4
	sub	sp, sp, #4
	@DEBUG_VALUE: APFilter:this <- %R0
.Ltmp23:
	.loc	8 87 34 prologue_end    @ /usr/bin/../lib/gcc/arm-linux-gnueabihf/6.3.0/../../../../include/c++/6.3.0/bits/stl_vector.h:87:34
	vmov.i32	q8, #0x0
	mov	r10, r0
.Ltmp24:
	@DEBUG_VALUE: APFilter:this <- %R10
	.loc	18 7 11                 @ /root/Bela/projects/vintage_effect/APFliter.cpp:7:11
	add	r0, r10, #20
.Ltmp25:
	@DEBUG_VALUE: vector:this <- %R0
	@DEBUG_VALUE: push_back:this <- %R0
	@DEBUG_VALUE: emplace_back<float>:this <- %R0
	@DEBUG_VALUE: _M_emplace_back_aux<float>:this <- %R0
	@DEBUG_VALUE: _M_check_len:this <- %R0
	@DEBUG_VALUE: size:this <- %R0
	@DEBUG_VALUE: size:this <- %R0
	@DEBUG_VALUE: size:this <- %R0
	@DEBUG_VALUE: size:this <- %R0
	@DEBUG_VALUE: size:this <- %R0
	@DEBUG_VALUE: ~vector:this <- %R0
	str	r0, [sp]                @ 4-byte Spill
.Ltmp26:
	@DEBUG_VALUE: vector:this <- [%SP+0]
	@DEBUG_VALUE: push_back:this <- [%SP+0]
	@DEBUG_VALUE: emplace_back<float>:this <- [%SP+0]
	@DEBUG_VALUE: _M_emplace_back_aux<float>:this <- [%SP+0]
	@DEBUG_VALUE: _M_check_len:this <- [%SP+0]
	@DEBUG_VALUE: size:this <- [%SP+0]
	@DEBUG_VALUE: size:this <- [%SP+0]
	@DEBUG_VALUE: size:this <- [%SP+0]
	@DEBUG_VALUE: size:this <- [%SP+0]
	@DEBUG_VALUE: size:this <- [%SP+0]
	@DEBUG_VALUE: ~vector:this <- [%SP+0]
	mov	r8, #0
	mov	r2, #0
.Ltmp27:
	.loc	8 87 34                 @ /usr/bin/../lib/gcc/arm-linux-gnueabihf/6.3.0/../../../../include/c++/6.3.0/bits/stl_vector.h:87:34
	vst1.32	{d16, d17}, [r0]
	mov	r0, #0
.Ltmp28:
	.file	19 "/usr/bin/../lib/gcc/arm-linux-gnueabihf/6.3.0/../../../../include/c++/6.3.0/bits" "vector.tcc"
	.loc	19 94 47                @ /usr/bin/../lib/gcc/arm-linux-gnueabihf/6.3.0/../../../../include/c++/6.3.0/bits/vector.tcc:94:47
	mov	r1, #0
	mov	r9, #0
.Ltmp29:
	.loc	8 87 34                 @ /usr/bin/../lib/gcc/arm-linux-gnueabihf/6.3.0/../../../../include/c++/6.3.0/bits/stl_vector.h:87:34
	str	r0, [r10, #36]
	str	r0, [r10, #40]
.Ltmp30:
	.loc	18 10 10                @ /root/Bela/projects/vintage_effect/APFliter.cpp:10:10
	mov	r0, #1000
	str	r0, [r10, #16]
.Ltmp31:
	@DEBUG_VALUE: i <- 0
	.loc	8 656 40                @ /usr/bin/../lib/gcc/arm-linux-gnueabihf/6.3.0/../../../../include/c++/6.3.0/bits/stl_vector.h:656:40
	mov	r0, #0
	b	.LBB0_2
.Ltmp32:
.LBB0_1:                                @ %_ZNSt6vectorIfSaIfEE9push_backEOf.exit13._crit_edge
                                        @   in Loop: Header=BB0_2 Depth=1
	@DEBUG_VALUE: i <- %R9
	.loc	19 98 6                 @ /usr/bin/../lib/gcc/arm-linux-gnueabihf/6.3.0/../../../../include/c++/6.3.0/bits/vector.tcc:98:6
	ldr	r0, [r10, #24]
.Ltmp33:
	.loc	19 94 47                @ /usr/bin/../lib/gcc/arm-linux-gnueabihf/6.3.0/../../../../include/c++/6.3.0/bits/vector.tcc:94:47
	ldr	r1, [r10, #28]
.Ltmp34:
.LBB0_2:                                @ =>This Inner Loop Header: Depth=1
	@DEBUG_VALUE: construct<float, float>:__p <- %R0
	.loc	19 94 6 is_stmt 0       @ /usr/bin/../lib/gcc/arm-linux-gnueabihf/6.3.0/../../../../include/c++/6.3.0/bits/vector.tcc:94:6
	cmp	r0, r1
	beq	.LBB0_4
.Ltmp35:
@ BB#3:                                 @   in Loop: Header=BB0_2 Depth=1
	@DEBUG_VALUE: construct<float, float>:__p <- %R0
	mov	r1, #0
.Ltmp36:
	.loc	4 120 4 is_stmt 1       @ /usr/bin/../lib/gcc/arm-linux-gnueabihf/6.3.0/../../../../include/c++/6.3.0/ext/new_allocator.h:120:4
	str	r1, [r0], #4
.Ltmp37:
	.loc	19 98 6                 @ /usr/bin/../lib/gcc/arm-linux-gnueabihf/6.3.0/../../../../include/c++/6.3.0/bits/vector.tcc:98:6
	str	r0, [r10, #24]
	b	.LBB0_13
.Ltmp38:
.LBB0_4:                                @   in Loop: Header=BB0_2 Depth=1
	@DEBUG_VALUE: construct<float, float>:__p <- %R0
	@DEBUG_VALUE: _M_check_len:__n <- 1
	.loc	8 656 66                @ /usr/bin/../lib/gcc/arm-linux-gnueabihf/6.3.0/../../../../include/c++/6.3.0/bits/stl_vector.h:656:66
	ldr	r1, [sp]                @ 4-byte Reload
	mov	r4, #0
	ldr	r6, [r1]
	.loc	8 656 50 is_stmt 0      @ /usr/bin/../lib/gcc/arm-linux-gnueabihf/6.3.0/../../../../include/c++/6.3.0/bits/stl_vector.h:656:50
	sub	r1, r0, r6
	asr	r2, r1, #2
.Ltmp39:
	.loc	8 1425 35 is_stmt 1     @ /usr/bin/../lib/gcc/arm-linux-gnueabihf/6.3.0/../../../../include/c++/6.3.0/bits/stl_vector.h:1425:35
	cmp	r4, r1, asr #2
	movweq	r2, #1
	add	r1, r2, r1, asr #2
	.loc	8 1426 25               @ /usr/bin/../lib/gcc/arm-linux-gnueabihf/6.3.0/../../../../include/c++/6.3.0/bits/stl_vector.h:1426:25
	cmp	r4, r1, lsr #30
	mov	r7, r1
	mvnne	r7, #-1073741824
	cmp	r1, r2
	.loc	8 1426 34 is_stmt 0 discriminator 1 @ /usr/bin/../lib/gcc/arm-linux-gnueabihf/6.3.0/../../../../include/c++/6.3.0/bits/stl_vector.h:1426:34
	mvn	r1, #-1073741824
	.loc	8 1426 25               @ /usr/bin/../lib/gcc/arm-linux-gnueabihf/6.3.0/../../../../include/c++/6.3.0/bits/stl_vector.h:1426:25
	movlo	r7, r1
.Ltmp40:
	@DEBUG_VALUE: _M_allocate:__n <- %R7
	@DEBUG_VALUE: _M_emplace_back_aux<float>:__len <- %R7
	@DEBUG_VALUE: allocate:__n <- %R7
	@DEBUG_VALUE: allocate:__n <- %R7
	.loc	8 170 9 is_stmt 1       @ /usr/bin/../lib/gcc/arm-linux-gnueabihf/6.3.0/../../../../include/c++/6.3.0/bits/stl_vector.h:170:9
	cmp	r7, #0
.Ltmp41:
	@DEBUG_VALUE: _M_check_len:__len <- %R1
	beq	.LBB0_8
.Ltmp42:
@ BB#5:                                 @   in Loop: Header=BB0_2 Depth=1
	@DEBUG_VALUE: _M_check_len:__len <- %R1
	@DEBUG_VALUE: allocate:__n <- %R7
	@DEBUG_VALUE: allocate:__n <- %R7
	@DEBUG_VALUE: _M_emplace_back_aux<float>:__len <- %R7
	@DEBUG_VALUE: _M_allocate:__n <- %R7
	@DEBUG_VALUE: construct<float, float>:__p <- %R0
	.loc	4 101 6                 @ /usr/bin/../lib/gcc/arm-linux-gnueabihf/6.3.0/../../../../include/c++/6.3.0/ext/new_allocator.h:101:6
	cmp	r7, #1073741824
	bhs	.LBB0_26
.Ltmp43:
@ BB#6:                                 @ %_ZNSt16allocator_traitsISaIfEE8allocateERS0_j.exit.i.i
                                        @   in Loop: Header=BB0_2 Depth=1
	@DEBUG_VALUE: _M_check_len:__len <- %R1
	@DEBUG_VALUE: allocate:__n <- %R7
	@DEBUG_VALUE: allocate:__n <- %R7
	@DEBUG_VALUE: _M_emplace_back_aux<float>:__len <- %R7
	@DEBUG_VALUE: _M_allocate:__n <- %R7
	@DEBUG_VALUE: construct<float, float>:__p <- %R0
	.loc	4 104 27                @ /usr/bin/../lib/gcc/arm-linux-gnueabihf/6.3.0/../../../../include/c++/6.3.0/ext/new_allocator.h:104:27
.Ltmp0:
	.loc	4 104 46 is_stmt 0      @ /usr/bin/../lib/gcc/arm-linux-gnueabihf/6.3.0/../../../../include/c++/6.3.0/ext/new_allocator.h:104:46
	lsl	r0, r7, #2
.Ltmp44:
	.loc	4 104 27                @ /usr/bin/../lib/gcc/arm-linux-gnueabihf/6.3.0/../../../../include/c++/6.3.0/ext/new_allocator.h:104:27
	bl	_Znwj
.Ltmp45:
	mov	r4, r0
.Ltmp1:
.Ltmp46:
@ BB#7:                                 @ %.noexc11
                                        @   in Loop: Header=BB0_2 Depth=1
	@DEBUG_VALUE: allocate:__n <- %R7
	@DEBUG_VALUE: allocate:__n <- %R7
	@DEBUG_VALUE: _M_emplace_back_aux<float>:__len <- %R7
	@DEBUG_VALUE: _M_allocate:__n <- %R7
	.loc	8 656 66 is_stmt 1      @ /usr/bin/../lib/gcc/arm-linux-gnueabihf/6.3.0/../../../../include/c++/6.3.0/bits/stl_vector.h:656:66
	ldr	r6, [r10, #20]
	.loc	8 656 40 is_stmt 0      @ /usr/bin/../lib/gcc/arm-linux-gnueabihf/6.3.0/../../../../include/c++/6.3.0/bits/stl_vector.h:656:40
	ldr	r0, [r10, #24]
.Ltmp47:
.LBB0_8:                                @   in Loop: Header=BB0_2 Depth=1
	@DEBUG_VALUE: allocate:__n <- %R7
	@DEBUG_VALUE: allocate:__n <- %R7
	@DEBUG_VALUE: _M_emplace_back_aux<float>:__len <- %R7
	@DEBUG_VALUE: _M_allocate:__n <- %R7
	@DEBUG_VALUE: _M_emplace_back_aux<float>:__new_finish <- %R4
	.loc	8 656 50                @ /usr/bin/../lib/gcc/arm-linux-gnueabihf/6.3.0/../../../../include/c++/6.3.0/bits/stl_vector.h:656:50
	sub	r2, r0, r6
.Ltmp48:
	@DEBUG_VALUE: __copy_move_a<true, float *, float *>:__simple <- 1
	@DEBUG_VALUE: uninitialized_copy<std::move_iterator<float *>, float *>:__assignable <- 1
	mov	r0, #0
.Ltmp49:
	.loc	4 120 4 is_stmt 1       @ /usr/bin/../lib/gcc/arm-linux-gnueabihf/6.3.0/../../../../include/c++/6.3.0/ext/new_allocator.h:120:4
	mov	r5, r4
	str	r0, [r5, r2]!
.Ltmp50:
	.file	20 "/usr/bin/../lib/gcc/arm-linux-gnueabihf/6.3.0/../../../../include/c++/6.3.0/bits" "stl_algobase.h"
	.loc	20 367 8                @ /usr/bin/../lib/gcc/arm-linux-gnueabihf/6.3.0/../../../../include/c++/6.3.0/bits/stl_algobase.h:367:8
	cmp	r0, r2, asr #2
.Ltmp51:
	@DEBUG_VALUE: construct<float, float>:__p <- %R5
	@DEBUG_VALUE: construct<float, float>:__p <- %R5
	@DEBUG_VALUE: _M_emplace_back_aux<float>:__new_finish <- %R5
	beq	.LBB0_10
.Ltmp52:
@ BB#9:                                 @   in Loop: Header=BB0_2 Depth=1
	@DEBUG_VALUE: _M_emplace_back_aux<float>:__new_finish <- %R5
	@DEBUG_VALUE: construct<float, float>:__p <- %R5
	@DEBUG_VALUE: construct<float, float>:__p <- %R5
	@DEBUG_VALUE: allocate:__n <- %R7
	@DEBUG_VALUE: allocate:__n <- %R7
	@DEBUG_VALUE: _M_emplace_back_aux<float>:__len <- %R7
	@DEBUG_VALUE: _M_allocate:__n <- %R7
	.loc	20 368 6                @ /usr/bin/../lib/gcc/arm-linux-gnueabihf/6.3.0/../../../../include/c++/6.3.0/bits/stl_algobase.h:368:6
	mov	r0, r4
	mov	r1, r6
	bl	memmove
.Ltmp53:
.LBB0_10:                               @   in Loop: Header=BB0_2 Depth=1
	@DEBUG_VALUE: _M_emplace_back_aux<float>:__new_finish <- %R5
	@DEBUG_VALUE: construct<float, float>:__p <- %R5
	@DEBUG_VALUE: construct<float, float>:__p <- %R5
	@DEBUG_VALUE: allocate:__n <- %R7
	@DEBUG_VALUE: allocate:__n <- %R7
	@DEBUG_VALUE: _M_emplace_back_aux<float>:__len <- %R7
	@DEBUG_VALUE: _M_allocate:__n <- %R7
	.loc	19 425 6                @ /usr/bin/../lib/gcc/arm-linux-gnueabihf/6.3.0/../../../../include/c++/6.3.0/bits/vector.tcc:425:6
	add	r5, r5, #4
.Ltmp54:
	@DEBUG_VALUE: _M_emplace_back_aux<float>:__new_finish <- %R5
	.loc	8 177 6                 @ /usr/bin/../lib/gcc/arm-linux-gnueabihf/6.3.0/../../../../include/c++/6.3.0/bits/stl_vector.h:177:6
	cmp	r6, #0
	beq	.LBB0_12
.Ltmp55:
@ BB#11:                                @   in Loop: Header=BB0_2 Depth=1
	@DEBUG_VALUE: _M_emplace_back_aux<float>:__new_finish <- %R5
	@DEBUG_VALUE: allocate:__n <- %R7
	@DEBUG_VALUE: allocate:__n <- %R7
	@DEBUG_VALUE: _M_emplace_back_aux<float>:__len <- %R7
	@DEBUG_VALUE: _M_allocate:__n <- %R7
	.loc	4 110 9                 @ /usr/bin/../lib/gcc/arm-linux-gnueabihf/6.3.0/../../../../include/c++/6.3.0/ext/new_allocator.h:110:9
	mov	r0, r6
	bl	_ZdlPv
.Ltmp56:
.LBB0_12:                               @ %.noexc
                                        @   in Loop: Header=BB0_2 Depth=1
	@DEBUG_VALUE: _M_emplace_back_aux<float>:__new_finish <- %R5
	@DEBUG_VALUE: allocate:__n <- %R7
	@DEBUG_VALUE: allocate:__n <- %R7
	@DEBUG_VALUE: _M_emplace_back_aux<float>:__len <- %R7
	@DEBUG_VALUE: _M_allocate:__n <- %R7
	.loc	19 441 25               @ /usr/bin/../lib/gcc/arm-linux-gnueabihf/6.3.0/../../../../include/c++/6.3.0/bits/vector.tcc:441:25
	str	r4, [r10, #20]
	.loc	19 443 48               @ /usr/bin/../lib/gcc/arm-linux-gnueabihf/6.3.0/../../../../include/c++/6.3.0/bits/vector.tcc:443:48
	add	r0, r4, r7, lsl #2
	.loc	19 442 26               @ /usr/bin/../lib/gcc/arm-linux-gnueabihf/6.3.0/../../../../include/c++/6.3.0/bits/vector.tcc:442:26
	str	r5, [r10, #24]
	.loc	19 443 34               @ /usr/bin/../lib/gcc/arm-linux-gnueabihf/6.3.0/../../../../include/c++/6.3.0/bits/vector.tcc:443:34
	str	r0, [r10, #28]
.Ltmp57:
	.loc	19 98 6                 @ /usr/bin/../lib/gcc/arm-linux-gnueabihf/6.3.0/../../../../include/c++/6.3.0/bits/vector.tcc:98:6
	ldr	r8, [r10, #36]
.Ltmp58:
	.loc	19 94 47                @ /usr/bin/../lib/gcc/arm-linux-gnueabihf/6.3.0/../../../../include/c++/6.3.0/bits/vector.tcc:94:47
	ldr	r2, [r10, #40]
.Ltmp59:
.LBB0_13:                               @ %_ZNSt6vectorIfSaIfEE9push_backEOf.exit
                                        @   in Loop: Header=BB0_2 Depth=1
	@DEBUG_VALUE: construct<float, float>:__p <- %R8
	.loc	19 94 6 is_stmt 0       @ /usr/bin/../lib/gcc/arm-linux-gnueabihf/6.3.0/../../../../include/c++/6.3.0/bits/vector.tcc:94:6
	cmp	r8, r2
	beq	.LBB0_15
.Ltmp60:
@ BB#14:                                @   in Loop: Header=BB0_2 Depth=1
	@DEBUG_VALUE: construct<float, float>:__p <- %R8
	mov	r0, #0
.Ltmp61:
	.loc	4 120 4 is_stmt 1       @ /usr/bin/../lib/gcc/arm-linux-gnueabihf/6.3.0/../../../../include/c++/6.3.0/ext/new_allocator.h:120:4
	str	r0, [r8], #4
.Ltmp62:
	.loc	19 98 6                 @ /usr/bin/../lib/gcc/arm-linux-gnueabihf/6.3.0/../../../../include/c++/6.3.0/bits/vector.tcc:98:6
	str	r8, [r10, #36]
	b	.LBB0_24
.Ltmp63:
.LBB0_15:                               @   in Loop: Header=BB0_2 Depth=1
	@DEBUG_VALUE: construct<float, float>:__p <- %R8
	@DEBUG_VALUE: _M_check_len:__n <- 1
	.loc	8 656 66                @ /usr/bin/../lib/gcc/arm-linux-gnueabihf/6.3.0/../../../../include/c++/6.3.0/bits/stl_vector.h:656:66
	ldr	r6, [r10, #32]
	mov	r5, #0
.Ltmp64:
	@DEBUG_VALUE: _M_emplace_back_aux<float>:__new_finish <- %R5
	.loc	8 656 50 is_stmt 0      @ /usr/bin/../lib/gcc/arm-linux-gnueabihf/6.3.0/../../../../include/c++/6.3.0/bits/stl_vector.h:656:50
	sub	r0, r8, r6
	asr	r1, r0, #2
.Ltmp65:
	.loc	8 1425 35 is_stmt 1     @ /usr/bin/../lib/gcc/arm-linux-gnueabihf/6.3.0/../../../../include/c++/6.3.0/bits/stl_vector.h:1425:35
	cmp	r5, r0, asr #2
	movweq	r1, #1
	add	r0, r1, r0, asr #2
	.loc	8 1426 25               @ /usr/bin/../lib/gcc/arm-linux-gnueabihf/6.3.0/../../../../include/c++/6.3.0/bits/stl_vector.h:1426:25
	cmp	r5, r0, lsr #30
	mov	r7, r0
	mvnne	r7, #-1073741824
	cmp	r0, r1
.Ltmp66:
	.loc	8 1426 34 is_stmt 0 discriminator 1 @ /usr/bin/../lib/gcc/arm-linux-gnueabihf/6.3.0/../../../../include/c++/6.3.0/bits/stl_vector.h:1426:34
	mvn	r0, #-1073741824
.Ltmp67:
	.loc	8 1426 25               @ /usr/bin/../lib/gcc/arm-linux-gnueabihf/6.3.0/../../../../include/c++/6.3.0/bits/stl_vector.h:1426:25
	movlo	r7, r0
.Ltmp68:
	@DEBUG_VALUE: _M_allocate:__n <- %R7
	@DEBUG_VALUE: _M_emplace_back_aux<float>:__len <- %R7
	@DEBUG_VALUE: allocate:__n <- %R7
	@DEBUG_VALUE: allocate:__n <- %R7
	.loc	8 170 9 is_stmt 1       @ /usr/bin/../lib/gcc/arm-linux-gnueabihf/6.3.0/../../../../include/c++/6.3.0/bits/stl_vector.h:170:9
	cmp	r7, #0
.Ltmp69:
	@DEBUG_VALUE: _M_check_len:__len <- %R0
	beq	.LBB0_19
.Ltmp70:
@ BB#16:                                @   in Loop: Header=BB0_2 Depth=1
	@DEBUG_VALUE: _M_check_len:__len <- %R0
	@DEBUG_VALUE: allocate:__n <- %R7
	@DEBUG_VALUE: allocate:__n <- %R7
	@DEBUG_VALUE: _M_emplace_back_aux<float>:__len <- %R7
	@DEBUG_VALUE: _M_allocate:__n <- %R7
	@DEBUG_VALUE: construct<float, float>:__p <- %R8
	@DEBUG_VALUE: _M_emplace_back_aux<float>:__new_finish <- %R5
	.loc	4 101 6                 @ /usr/bin/../lib/gcc/arm-linux-gnueabihf/6.3.0/../../../../include/c++/6.3.0/ext/new_allocator.h:101:6
	cmp	r7, #1073741824
	bhs	.LBB0_28
.Ltmp71:
@ BB#17:                                @ %_ZNSt16allocator_traitsISaIfEE8allocateERS0_j.exit.i.i18
                                        @   in Loop: Header=BB0_2 Depth=1
	@DEBUG_VALUE: _M_check_len:__len <- %R0
	@DEBUG_VALUE: allocate:__n <- %R7
	@DEBUG_VALUE: allocate:__n <- %R7
	@DEBUG_VALUE: _M_emplace_back_aux<float>:__len <- %R7
	@DEBUG_VALUE: _M_allocate:__n <- %R7
	@DEBUG_VALUE: construct<float, float>:__p <- %R8
	@DEBUG_VALUE: _M_emplace_back_aux<float>:__new_finish <- %R5
	.loc	4 104 27                @ /usr/bin/../lib/gcc/arm-linux-gnueabihf/6.3.0/../../../../include/c++/6.3.0/ext/new_allocator.h:104:27
.Ltmp6:
	.loc	4 104 46 is_stmt 0      @ /usr/bin/../lib/gcc/arm-linux-gnueabihf/6.3.0/../../../../include/c++/6.3.0/ext/new_allocator.h:104:46
	lsl	r0, r7, #2
.Ltmp72:
	.loc	4 104 27                @ /usr/bin/../lib/gcc/arm-linux-gnueabihf/6.3.0/../../../../include/c++/6.3.0/ext/new_allocator.h:104:27
	bl	_Znwj
	mov	r5, r0
.Ltmp73:
.Ltmp7:
.Ltmp74:
@ BB#18:                                @ %.noexc21
                                        @   in Loop: Header=BB0_2 Depth=1
	@DEBUG_VALUE: allocate:__n <- %R7
	@DEBUG_VALUE: allocate:__n <- %R7
	@DEBUG_VALUE: _M_emplace_back_aux<float>:__len <- %R7
	@DEBUG_VALUE: _M_allocate:__n <- %R7
	@DEBUG_VALUE: construct<float, float>:__p <- %R8
	.loc	8 656 66 is_stmt 1      @ /usr/bin/../lib/gcc/arm-linux-gnueabihf/6.3.0/../../../../include/c++/6.3.0/bits/stl_vector.h:656:66
	ldr	r6, [r10, #32]
	.loc	8 656 40 is_stmt 0      @ /usr/bin/../lib/gcc/arm-linux-gnueabihf/6.3.0/../../../../include/c++/6.3.0/bits/stl_vector.h:656:40
	ldr	r8, [r10, #36]
.Ltmp75:
.LBB0_19:                               @   in Loop: Header=BB0_2 Depth=1
	@DEBUG_VALUE: allocate:__n <- %R7
	@DEBUG_VALUE: allocate:__n <- %R7
	@DEBUG_VALUE: _M_emplace_back_aux<float>:__len <- %R7
	@DEBUG_VALUE: _M_allocate:__n <- %R7
	@DEBUG_VALUE: _M_emplace_back_aux<float>:__new_finish <- %R5
	.loc	8 656 50                @ /usr/bin/../lib/gcc/arm-linux-gnueabihf/6.3.0/../../../../include/c++/6.3.0/bits/stl_vector.h:656:50
	sub	r2, r8, r6
.Ltmp76:
	@DEBUG_VALUE: __copy_move_a<true, float *, float *>:__simple <- 1
	@DEBUG_VALUE: uninitialized_copy<std::move_iterator<float *>, float *>:__assignable <- 1
	mov	r0, #0
.Ltmp77:
	.loc	4 120 4 is_stmt 1       @ /usr/bin/../lib/gcc/arm-linux-gnueabihf/6.3.0/../../../../include/c++/6.3.0/ext/new_allocator.h:120:4
	mov	r4, r5
	str	r0, [r4, r2]!
.Ltmp78:
	.loc	20 367 8                @ /usr/bin/../lib/gcc/arm-linux-gnueabihf/6.3.0/../../../../include/c++/6.3.0/bits/stl_algobase.h:367:8
	cmp	r0, r2, asr #2
.Ltmp79:
	@DEBUG_VALUE: construct<float, float>:__p <- %R4
	@DEBUG_VALUE: construct<float, float>:__p <- %R4
	@DEBUG_VALUE: _M_emplace_back_aux<float>:__new_finish <- %R4
	beq	.LBB0_21
.Ltmp80:
@ BB#20:                                @   in Loop: Header=BB0_2 Depth=1
	@DEBUG_VALUE: _M_emplace_back_aux<float>:__new_finish <- %R4
	@DEBUG_VALUE: construct<float, float>:__p <- %R4
	@DEBUG_VALUE: construct<float, float>:__p <- %R4
	@DEBUG_VALUE: allocate:__n <- %R7
	@DEBUG_VALUE: allocate:__n <- %R7
	@DEBUG_VALUE: _M_emplace_back_aux<float>:__len <- %R7
	@DEBUG_VALUE: _M_allocate:__n <- %R7
	.loc	20 368 6                @ /usr/bin/../lib/gcc/arm-linux-gnueabihf/6.3.0/../../../../include/c++/6.3.0/bits/stl_algobase.h:368:6
	mov	r0, r5
	mov	r1, r6
	bl	memmove
.Ltmp81:
.LBB0_21:                               @   in Loop: Header=BB0_2 Depth=1
	@DEBUG_VALUE: _M_emplace_back_aux<float>:__new_finish <- %R4
	@DEBUG_VALUE: construct<float, float>:__p <- %R4
	@DEBUG_VALUE: construct<float, float>:__p <- %R4
	@DEBUG_VALUE: allocate:__n <- %R7
	@DEBUG_VALUE: allocate:__n <- %R7
	@DEBUG_VALUE: _M_emplace_back_aux<float>:__len <- %R7
	@DEBUG_VALUE: _M_allocate:__n <- %R7
	.loc	19 425 6                @ /usr/bin/../lib/gcc/arm-linux-gnueabihf/6.3.0/../../../../include/c++/6.3.0/bits/vector.tcc:425:6
	add	r8, r4, #4
.Ltmp82:
	@DEBUG_VALUE: _M_emplace_back_aux<float>:__new_finish <- %R8
	.loc	8 177 6                 @ /usr/bin/../lib/gcc/arm-linux-gnueabihf/6.3.0/../../../../include/c++/6.3.0/bits/stl_vector.h:177:6
	cmp	r6, #0
	beq	.LBB0_23
.Ltmp83:
@ BB#22:                                @   in Loop: Header=BB0_2 Depth=1
	@DEBUG_VALUE: _M_emplace_back_aux<float>:__new_finish <- %R8
	@DEBUG_VALUE: construct<float, float>:__p <- %R4
	@DEBUG_VALUE: construct<float, float>:__p <- %R4
	@DEBUG_VALUE: allocate:__n <- %R7
	@DEBUG_VALUE: allocate:__n <- %R7
	@DEBUG_VALUE: _M_emplace_back_aux<float>:__len <- %R7
	@DEBUG_VALUE: _M_allocate:__n <- %R7
	.loc	4 110 9                 @ /usr/bin/../lib/gcc/arm-linux-gnueabihf/6.3.0/../../../../include/c++/6.3.0/ext/new_allocator.h:110:9
	mov	r0, r6
	bl	_ZdlPv
.Ltmp84:
.LBB0_23:                               @ %.noexc12
                                        @   in Loop: Header=BB0_2 Depth=1
	@DEBUG_VALUE: _M_emplace_back_aux<float>:__new_finish <- %R8
	@DEBUG_VALUE: construct<float, float>:__p <- %R4
	@DEBUG_VALUE: construct<float, float>:__p <- %R4
	@DEBUG_VALUE: allocate:__n <- %R7
	@DEBUG_VALUE: allocate:__n <- %R7
	@DEBUG_VALUE: _M_emplace_back_aux<float>:__len <- %R7
	@DEBUG_VALUE: _M_allocate:__n <- %R7
	.loc	19 443 48               @ /usr/bin/../lib/gcc/arm-linux-gnueabihf/6.3.0/../../../../include/c++/6.3.0/bits/vector.tcc:443:48
	add	r2, r5, r7, lsl #2
	.loc	19 441 25               @ /usr/bin/../lib/gcc/arm-linux-gnueabihf/6.3.0/../../../../include/c++/6.3.0/bits/vector.tcc:441:25
	str	r5, [r10, #32]
	.loc	19 442 26               @ /usr/bin/../lib/gcc/arm-linux-gnueabihf/6.3.0/../../../../include/c++/6.3.0/bits/vector.tcc:442:26
	str	r8, [r10, #36]
	.loc	19 443 34               @ /usr/bin/../lib/gcc/arm-linux-gnueabihf/6.3.0/../../../../include/c++/6.3.0/bits/vector.tcc:443:34
	str	r2, [r10, #40]
.Ltmp85:
.LBB0_24:                               @ %_ZNSt6vectorIfSaIfEE9push_backEOf.exit13
                                        @   in Loop: Header=BB0_2 Depth=1
	.loc	18 12 35 discriminator 3 @ /root/Bela/projects/vintage_effect/APFliter.cpp:12:35
	add	r9, r9, #1
.Ltmp86:
	@DEBUG_VALUE: i <- %R9
	.loc	18 12 25 is_stmt 0 discriminator 1 @ /root/Bela/projects/vintage_effect/APFliter.cpp:12:25
	ldr	r0, [r10, #16]
	.loc	18 12 2 discriminator 1 @ /root/Bela/projects/vintage_effect/APFliter.cpp:12:2
	cmp	r9, r0
	blo	.LBB0_1
.Ltmp87:
@ BB#25:                                @ %._crit_edge
	@DEBUG_VALUE: i <- %R9
	.loc	18 18 8 is_stmt 1       @ /root/Bela/projects/vintage_effect/APFliter.cpp:18:8
	movw	r1, #39322
	mov	r0, #0
	movt	r1, #16153
	str	r1, [r10, #4]
	.loc	18 19 12                @ /root/Bela/projects/vintage_effect/APFliter.cpp:19:12
	str	r0, [r10, #8]
	.loc	18 17 12                @ /root/Bela/projects/vintage_effect/APFliter.cpp:17:12
	str	r0, [r10, #12]
.Ltmp88:
	.loc	18 20 1 discriminator 3 @ /root/Bela/projects/vintage_effect/APFliter.cpp:20:1
	mov	r0, r10
	sub	sp, r11, #28
	pop	{r4, r5, r6, r7, r8, r9, r10, r11, pc}
.Ltmp89:
.LBB0_26:
	@DEBUG_VALUE: _M_check_len:__len <- %R1
	@DEBUG_VALUE: allocate:__n <- %R7
	@DEBUG_VALUE: allocate:__n <- %R7
	@DEBUG_VALUE: _M_emplace_back_aux<float>:__len <- %R7
	@DEBUG_VALUE: _M_allocate:__n <- %R7
	@DEBUG_VALUE: construct<float, float>:__p <- %R0
	.loc	4 102 4                 @ /usr/bin/../lib/gcc/arm-linux-gnueabihf/6.3.0/../../../../include/c++/6.3.0/ext/new_allocator.h:102:4
.Ltmp3:
	mov	lr, pc
	b	_ZSt17__throw_bad_allocv
.Ltmp90:
.Ltmp4:
.Ltmp91:
@ BB#27:                                @ %.noexc10
	@DEBUG_VALUE: allocate:__n <- %R7
	@DEBUG_VALUE: allocate:__n <- %R7
	@DEBUG_VALUE: _M_emplace_back_aux<float>:__len <- %R7
	@DEBUG_VALUE: _M_allocate:__n <- %R7
.LBB0_28:
	@DEBUG_VALUE: _M_check_len:__len <- %R0
	@DEBUG_VALUE: allocate:__n <- %R7
	@DEBUG_VALUE: allocate:__n <- %R7
	@DEBUG_VALUE: _M_emplace_back_aux<float>:__len <- %R7
	@DEBUG_VALUE: _M_allocate:__n <- %R7
	@DEBUG_VALUE: construct<float, float>:__p <- %R8
	@DEBUG_VALUE: _M_emplace_back_aux<float>:__new_finish <- %R5
	.loc	4 102 4 is_stmt 0       @ /usr/bin/../lib/gcc/arm-linux-gnueabihf/6.3.0/../../../../include/c++/6.3.0/ext/new_allocator.h:102:4
.Ltmp9:
	mov	lr, pc
	b	_ZSt17__throw_bad_allocv
.Ltmp92:
.Ltmp10:
.Ltmp93:
@ BB#29:                                @ %.noexc20
	@DEBUG_VALUE: allocate:__n <- %R7
	@DEBUG_VALUE: allocate:__n <- %R7
	@DEBUG_VALUE: _M_emplace_back_aux<float>:__len <- %R7
	@DEBUG_VALUE: _M_allocate:__n <- %R7
	@DEBUG_VALUE: construct<float, float>:__p <- %R8
	@DEBUG_VALUE: _M_emplace_back_aux<float>:__new_finish <- %R5
.LBB0_30:                               @ %.loopexit.split-lp31
	@DEBUG_VALUE: allocate:__n <- %R7
	@DEBUG_VALUE: allocate:__n <- %R7
	@DEBUG_VALUE: _M_emplace_back_aux<float>:__len <- %R7
	@DEBUG_VALUE: _M_allocate:__n <- %R7
	@DEBUG_VALUE: construct<float, float>:__p <- %R8
	@DEBUG_VALUE: _M_emplace_back_aux<float>:__new_finish <- %R5
.Ltmp11:
	b	.LBB0_34
.Ltmp94:
.LBB0_31:                               @ %.loopexit.split-lp
	@DEBUG_VALUE: allocate:__n <- %R7
	@DEBUG_VALUE: allocate:__n <- %R7
	@DEBUG_VALUE: _M_emplace_back_aux<float>:__len <- %R7
	@DEBUG_VALUE: _M_allocate:__n <- %R7
.Ltmp5:
	b	.LBB0_34
.Ltmp95:
.LBB0_32:                               @ %.loopexit30
	@DEBUG_VALUE: allocate:__n <- %R7
	@DEBUG_VALUE: allocate:__n <- %R7
	@DEBUG_VALUE: _M_emplace_back_aux<float>:__len <- %R7
	@DEBUG_VALUE: _M_allocate:__n <- %R7
	@DEBUG_VALUE: construct<float, float>:__p <- %R8
.Ltmp8:
	b	.LBB0_34
.Ltmp96:
.LBB0_33:                               @ %.loopexit
	@DEBUG_VALUE: allocate:__n <- %R7
	@DEBUG_VALUE: allocate:__n <- %R7
	@DEBUG_VALUE: _M_emplace_back_aux<float>:__len <- %R7
	@DEBUG_VALUE: _M_allocate:__n <- %R7
.Ltmp2:
.Ltmp97:
.LBB0_34:
	mov	r5, r0
.Ltmp98:
	.loc	8 160 37 is_stmt 1      @ /usr/bin/../lib/gcc/arm-linux-gnueabihf/6.3.0/../../../../include/c++/6.3.0/bits/stl_vector.h:160:37
	ldr	r0, [r10, #32]
.Ltmp99:
	@DEBUG_VALUE: _M_deallocate:__p <- %R0
	@DEBUG_VALUE: deallocate:__p <- %R0
	@DEBUG_VALUE: deallocate:__p <- %R0
	.loc	8 177 6                 @ /usr/bin/../lib/gcc/arm-linux-gnueabihf/6.3.0/../../../../include/c++/6.3.0/bits/stl_vector.h:177:6
	cmp	r0, #0
	beq	.LBB0_36
.Ltmp100:
@ BB#35:
	@DEBUG_VALUE: deallocate:__p <- %R0
	@DEBUG_VALUE: deallocate:__p <- %R0
	@DEBUG_VALUE: _M_deallocate:__p <- %R0
	.loc	4 110 9                 @ /usr/bin/../lib/gcc/arm-linux-gnueabihf/6.3.0/../../../../include/c++/6.3.0/ext/new_allocator.h:110:9
	bl	_ZdlPv
.Ltmp101:
.LBB0_36:                               @ %_ZNSt6vectorIfSaIfEED2Ev.exit9
	.loc	8 160 37                @ /usr/bin/../lib/gcc/arm-linux-gnueabihf/6.3.0/../../../../include/c++/6.3.0/bits/stl_vector.h:160:37
	ldr	r0, [sp]                @ 4-byte Reload
	ldr	r0, [r0]
.Ltmp102:
	@DEBUG_VALUE: _M_deallocate:__p <- %R0
	@DEBUG_VALUE: deallocate:__p <- %R0
	@DEBUG_VALUE: deallocate:__p <- %R0
	.loc	8 177 6                 @ /usr/bin/../lib/gcc/arm-linux-gnueabihf/6.3.0/../../../../include/c++/6.3.0/bits/stl_vector.h:177:6
	cmp	r0, #0
	beq	.LBB0_38
.Ltmp103:
@ BB#37:
	@DEBUG_VALUE: deallocate:__p <- %R0
	@DEBUG_VALUE: deallocate:__p <- %R0
	@DEBUG_VALUE: _M_deallocate:__p <- %R0
	.loc	4 110 9                 @ /usr/bin/../lib/gcc/arm-linux-gnueabihf/6.3.0/../../../../include/c++/6.3.0/ext/new_allocator.h:110:9
	bl	_ZdlPv
.Ltmp104:
.LBB0_38:                               @ %_ZNSt6vectorIfSaIfEED2Ev.exit
	mov	r0, r5
	mov	lr, pc
	b	_Unwind_Resume
.Lfunc_end0:
	.size	_ZN8APFilterC2Ev, .Lfunc_end0-_ZN8APFilterC2Ev
	.cfi_endproc
	.file	21 "/usr/bin/../lib/gcc/arm-linux-gnueabihf/6.3.0/../../../../include/c++/6.3.0/bits" "stl_uninitialized.h"
	.file	22 "/root/Bela/projects/vintage_effect" "APFilter.h"
	.globl	__gxx_personality_v0
	.personality __gxx_personality_v0
	.handlerdata
	.p2align	2
GCC_except_table0:
.Lexception0:
	.byte	255                     @ @LPStart Encoding = omit
	.byte	0                       @ @TType Encoding = absptr
	.byte	93                      @ @TType base offset
	.byte	3                       @ Call site Encoding = udata4
	.byte	91                      @ Call site table length
	.long	.Ltmp0-.Lfunc_begin0    @ >> Call Site 1 <<
	.long	.Ltmp1-.Ltmp0           @   Call between .Ltmp0 and .Ltmp1
	.long	.Ltmp2-.Lfunc_begin0    @     jumps to .Ltmp2
	.byte	0                       @   On action: cleanup
	.long	.Ltmp1-.Lfunc_begin0    @ >> Call Site 2 <<
	.long	.Ltmp6-.Ltmp1           @   Call between .Ltmp1 and .Ltmp6
	.long	0                       @     has no landing pad
	.byte	0                       @   On action: cleanup
	.long	.Ltmp6-.Lfunc_begin0    @ >> Call Site 3 <<
	.long	.Ltmp7-.Ltmp6           @   Call between .Ltmp6 and .Ltmp7
	.long	.Ltmp8-.Lfunc_begin0    @     jumps to .Ltmp8
	.byte	0                       @   On action: cleanup
	.long	.Ltmp7-.Lfunc_begin0    @ >> Call Site 4 <<
	.long	.Ltmp3-.Ltmp7           @   Call between .Ltmp7 and .Ltmp3
	.long	0                       @     has no landing pad
	.byte	0                       @   On action: cleanup
	.long	.Ltmp3-.Lfunc_begin0    @ >> Call Site 5 <<
	.long	.Ltmp4-.Ltmp3           @   Call between .Ltmp3 and .Ltmp4
	.long	.Ltmp5-.Lfunc_begin0    @     jumps to .Ltmp5
	.byte	0                       @   On action: cleanup
	.long	.Ltmp9-.Lfunc_begin0    @ >> Call Site 6 <<
	.long	.Ltmp10-.Ltmp9          @   Call between .Ltmp9 and .Ltmp10
	.long	.Ltmp11-.Lfunc_begin0   @     jumps to .Ltmp11
	.byte	0                       @   On action: cleanup
	.long	.Ltmp10-.Lfunc_begin0   @ >> Call Site 7 <<
	.long	.Lfunc_end0-.Ltmp10     @   Call between .Ltmp10 and .Lfunc_end0
	.long	0                       @     has no landing pad
	.byte	0                       @   On action: cleanup
	.p2align	2
	.fnend

	.globl	_ZN8APFilter13setSampleRateEi
	.p2align	2
	.type	_ZN8APFilter13setSampleRateEi,%function
_ZN8APFilter13setSampleRateEi:          @ @_ZN8APFilter13setSampleRateEi
.Lfunc_begin1:
	.loc	18 27 0                 @ /root/Bela/projects/vintage_effect/APFliter.cpp:27:0
	.fnstart
	.cfi_startproc
@ BB#0:
	@DEBUG_VALUE: setSampleRate:this <- %R0
	@DEBUG_VALUE: setSampleRate:rate <- %R1
	.loc	18 28 14 prologue_end   @ /root/Bela/projects/vintage_effect/APFliter.cpp:28:14
	str	r1, [r0]
	.loc	18 29 1                 @ /root/Bela/projects/vintage_effect/APFliter.cpp:29:1
	bx	lr
.Ltmp105:
.Lfunc_end1:
	.size	_ZN8APFilter13setSampleRateEi, .Lfunc_end1-_ZN8APFilter13setSampleRateEi
	.cfi_endproc
	.fnend

	.globl	_ZN8APFilter8setDelayEi
	.p2align	2
	.type	_ZN8APFilter8setDelayEi,%function
_ZN8APFilter8setDelayEi:                @ @_ZN8APFilter8setDelayEi
.Lfunc_begin2:
	.loc	18 37 0                 @ /root/Bela/projects/vintage_effect/APFliter.cpp:37:0
	.fnstart
	.cfi_startproc
@ BB#0:
	@DEBUG_VALUE: setDelay:this <- %R0
	@DEBUG_VALUE: setDelay:d <- %R1
	.loc	18 38 9 prologue_end    @ /root/Bela/projects/vintage_effect/APFliter.cpp:38:9
	str	r1, [r0, #8]
	.loc	18 40 1                 @ /root/Bela/projects/vintage_effect/APFliter.cpp:40:1
	bx	lr
.Ltmp106:
.Lfunc_end2:
	.size	_ZN8APFilter8setDelayEi, .Lfunc_end2-_ZN8APFilter8setDelayEi
	.cfi_endproc
	.fnend

	.globl	_ZN8APFilter4setGEf
	.p2align	2
	.type	_ZN8APFilter4setGEf,%function
_ZN8APFilter4setGEf:                    @ @_ZN8APFilter4setGEf
.Lfunc_begin3:
	.loc	18 47 0                 @ /root/Bela/projects/vintage_effect/APFliter.cpp:47:0
	.fnstart
	.cfi_startproc
@ BB#0:
	@DEBUG_VALUE: setG:this <- %R0
	@DEBUG_VALUE: setG:g <- %S0
	.loc	18 48 5 prologue_end    @ /root/Bela/projects/vintage_effect/APFliter.cpp:48:5
	vstr	s0, [r0, #4]
	.loc	18 50 1                 @ /root/Bela/projects/vintage_effect/APFliter.cpp:50:1
	bx	lr
.Ltmp107:
.Lfunc_end3:
	.size	_ZN8APFilter4setGEf, .Lfunc_end3-_ZN8APFilter4setGEf
	.cfi_endproc
	.fnend

	.globl	_ZN8APFilter17getFilteredSampleEf
	.p2align	2
	.type	_ZN8APFilter17getFilteredSampleEf,%function
_ZN8APFilter17getFilteredSampleEf:      @ @_ZN8APFilter17getFilteredSampleEf
.Lfunc_begin4:
	.loc	18 57 0                 @ /root/Bela/projects/vintage_effect/APFliter.cpp:57:0
	.fnstart
	.cfi_startproc
@ BB#0:                                 @ %._crit_edge
	.save	{r4, lr}
	push	{r4, lr}
.Ltmp108:
	.cfi_def_cfa_offset 8
.Ltmp109:
	.cfi_offset lr, -4
.Ltmp110:
	.cfi_offset r4, -8
	@DEBUG_VALUE: getFilteredSample:this <- %R0
	@DEBUG_VALUE: getFilteredSample:in <- %S0
.Ltmp111:
	.loc	18 66 8 prologue_end    @ /root/Bela/projects/vintage_effect/APFliter.cpp:66:8
	ldr	r1, [r0, #12]
                                        @ kill: %S0<def> %S0<kill> %D0<def>
.Ltmp112:
	@DEBUG_VALUE: getFilteredSample:afterDelay <- 0
	@DEBUG_VALUE: getFilteredSample:out <- 0.000000e+00
	.loc	18 61 22                @ /root/Bela/projects/vintage_effect/APFliter.cpp:61:22
	ldr	r2, [r0, #8]
.Ltmp113:
	@DEBUG_VALUE: operator[]:__n <- %R1
	@DEBUG_VALUE: operator[]:__n <- %R1
	.loc	18 67 13                @ /root/Bela/projects/vintage_effect/APFliter.cpp:67:13
	ldr	r12, [r0, #16]
.Ltmp114:
	.loc	18 61 20                @ /root/Bela/projects/vintage_effect/APFliter.cpp:61:20
	sub	r2, r1, r2
.Ltmp115:
	@DEBUG_VALUE: getFilteredSample:temp <- %R2
	.loc	18 63 9                 @ /root/Bela/projects/vintage_effect/APFliter.cpp:63:9
	vldr	s2, [r0, #4]
	.loc	18 62 2                 @ /root/Bela/projects/vintage_effect/APFliter.cpp:62:2
	cmp	r2, #0
.Ltmp116:
	.loc	8 781 32                @ /usr/bin/../lib/gcc/arm-linux-gnueabihf/6.3.0/../../../../include/c++/6.3.0/bits/stl_vector.h:781:32
	ldr	r3, [r0, #20]
.Ltmp117:
	.loc	18 62 2                 @ /root/Bela/projects/vintage_effect/APFliter.cpp:62:2
	addle	r2, r2, r12
.Ltmp118:
	@DEBUG_VALUE: operator[]:__n <- %R2
	@DEBUG_VALUE: operator[]:__n <- %R2
	.loc	8 781 32                @ /usr/bin/../lib/gcc/arm-linux-gnueabihf/6.3.0/../../../../include/c++/6.3.0/bits/stl_vector.h:781:32
	ldr	lr, [r0, #32]
.Ltmp119:
	.loc	18 63 12                @ /root/Bela/projects/vintage_effect/APFliter.cpp:63:12
	vmul.f32	d16, d1, d0
.Ltmp120:
	.loc	8 781 41                @ /usr/bin/../lib/gcc/arm-linux-gnueabihf/6.3.0/../../../../include/c++/6.3.0/bits/stl_vector.h:781:41
	add	r4, r3, r2, lsl #2
.Ltmp121:
	.loc	8 781 41 is_stmt 0      @ /usr/bin/../lib/gcc/arm-linux-gnueabihf/6.3.0/../../../../include/c++/6.3.0/bits/stl_vector.h:781:41
	add	r2, lr, r2, lsl #2
.Ltmp122:
	.loc	18 63 45 is_stmt 1      @ /root/Bela/projects/vintage_effect/APFliter.cpp:63:45
	vldr	s6, [r2]
.Ltmp123:
	.loc	8 781 41                @ /usr/bin/../lib/gcc/arm-linux-gnueabihf/6.3.0/../../../../include/c++/6.3.0/bits/stl_vector.h:781:41
	add	r2, r3, r1, lsl #2
.Ltmp124:
	.loc	18 63 19                @ /root/Bela/projects/vintage_effect/APFliter.cpp:63:19
	vldr	s4, [r4]
	.loc	18 63 43 is_stmt 0      @ /root/Bela/projects/vintage_effect/APFliter.cpp:63:43
	vmul.f32	d17, d3, d1
	.loc	18 64 17 is_stmt 1      @ /root/Bela/projects/vintage_effect/APFliter.cpp:64:17
	vstr	s0, [r2]
	.loc	18 63 17                @ /root/Bela/projects/vintage_effect/APFliter.cpp:63:17
	vsub.f32	d16, d2, d16
.Ltmp125:
	.loc	8 781 41                @ /usr/bin/../lib/gcc/arm-linux-gnueabihf/6.3.0/../../../../include/c++/6.3.0/bits/stl_vector.h:781:41
	add	r2, lr, r1, lsl #2
.Ltmp126:
	@DEBUG_VALUE: getFilteredSample:out <- %S0
	.loc	18 66 8                 @ /root/Bela/projects/vintage_effect/APFliter.cpp:66:8
	add	r1, r1, #1
.Ltmp127:
	.loc	18 67 5                 @ /root/Bela/projects/vintage_effect/APFliter.cpp:67:5
	cmp	r1, r12
	movge	r1, #0
	.loc	18 63 38                @ /root/Bela/projects/vintage_effect/APFliter.cpp:63:38
	vadd.f32	d0, d17, d16
.Ltmp128:
	.loc	18 65 17                @ /root/Bela/projects/vintage_effect/APFliter.cpp:65:17
	vstr	s0, [r2]
	.loc	18 68 2                 @ /root/Bela/projects/vintage_effect/APFliter.cpp:68:2
                                        @ kill: %S0<def> %S0<kill> %D0<kill>
.Ltmp129:
	.loc	18 67 29 discriminator 1 @ /root/Bela/projects/vintage_effect/APFliter.cpp:67:29
	str	r1, [r0, #12]
.Ltmp130:
	.loc	18 68 2                 @ /root/Bela/projects/vintage_effect/APFliter.cpp:68:2
	pop	{r4, pc}
.Ltmp131:
.Lfunc_end4:
	.size	_ZN8APFilter17getFilteredSampleEf, .Lfunc_end4-_ZN8APFilter17getFilteredSampleEf
	.cfi_endproc
	.fnend

	.globl	_ZN8APFilterD2Ev
	.p2align	2
	.type	_ZN8APFilterD2Ev,%function
_ZN8APFilterD2Ev:                       @ @_ZN8APFilterD2Ev
.Lfunc_begin5:
	.loc	18 76 0                 @ /root/Bela/projects/vintage_effect/APFliter.cpp:76:0
	.fnstart
	.cfi_startproc
@ BB#0:
	.save	{r4, r10, r11, lr}
	push	{r4, r10, r11, lr}
.Ltmp132:
	.cfi_def_cfa_offset 16
.Ltmp133:
	.cfi_offset lr, -4
.Ltmp134:
	.cfi_offset r11, -8
.Ltmp135:
	.cfi_offset r10, -12
.Ltmp136:
	.cfi_offset r4, -16
	.setfp	r11, sp, #8
	add	r11, sp, #8
.Ltmp137:
	.cfi_def_cfa r11, 8
	@DEBUG_VALUE: ~APFilter:this <- %R0
	mov	r4, r0
.Ltmp138:
	@DEBUG_VALUE: ~APFilter:this <- %R4
	.loc	8 160 37 prologue_end   @ /usr/bin/../lib/gcc/arm-linux-gnueabihf/6.3.0/../../../../include/c++/6.3.0/bits/stl_vector.h:160:37
	ldr	r0, [r4, #32]
.Ltmp139:
	@DEBUG_VALUE: _M_deallocate:__p <- %R0
	@DEBUG_VALUE: deallocate:__p <- %R0
	@DEBUG_VALUE: deallocate:__p <- %R0
	.loc	8 177 6                 @ /usr/bin/../lib/gcc/arm-linux-gnueabihf/6.3.0/../../../../include/c++/6.3.0/bits/stl_vector.h:177:6
	cmp	r0, #0
	beq	.LBB5_2
.Ltmp140:
@ BB#1:
	@DEBUG_VALUE: deallocate:__p <- %R0
	@DEBUG_VALUE: deallocate:__p <- %R0
	@DEBUG_VALUE: _M_deallocate:__p <- %R0
	@DEBUG_VALUE: ~APFilter:this <- %R4
	.loc	4 110 9                 @ /usr/bin/../lib/gcc/arm-linux-gnueabihf/6.3.0/../../../../include/c++/6.3.0/ext/new_allocator.h:110:9
	bl	_ZdlPv
.Ltmp141:
.LBB5_2:                                @ %_ZNSt6vectorIfSaIfEED2Ev.exit
	@DEBUG_VALUE: ~APFilter:this <- %R4
	.loc	8 160 37                @ /usr/bin/../lib/gcc/arm-linux-gnueabihf/6.3.0/../../../../include/c++/6.3.0/bits/stl_vector.h:160:37
	ldr	r0, [r4, #20]
.Ltmp142:
	@DEBUG_VALUE: _M_deallocate:__p <- %R0
	@DEBUG_VALUE: deallocate:__p <- %R0
	@DEBUG_VALUE: deallocate:__p <- %R0
	.loc	8 177 6                 @ /usr/bin/../lib/gcc/arm-linux-gnueabihf/6.3.0/../../../../include/c++/6.3.0/bits/stl_vector.h:177:6
	cmp	r0, #0
	beq	.LBB5_4
.Ltmp143:
@ BB#3:
	@DEBUG_VALUE: deallocate:__p <- %R0
	@DEBUG_VALUE: deallocate:__p <- %R0
	@DEBUG_VALUE: _M_deallocate:__p <- %R0
	@DEBUG_VALUE: ~APFilter:this <- %R4
	.loc	4 110 9                 @ /usr/bin/../lib/gcc/arm-linux-gnueabihf/6.3.0/../../../../include/c++/6.3.0/ext/new_allocator.h:110:9
	bl	_ZdlPv
.Ltmp144:
.LBB5_4:                                @ %_ZNSt6vectorIfSaIfEED2Ev.exit1
	@DEBUG_VALUE: ~APFilter:this <- %R4
	.loc	18 78 1                 @ /root/Bela/projects/vintage_effect/APFliter.cpp:78:1
	mov	r0, r4
	pop	{r4, r10, r11, pc}
.Ltmp145:
.Lfunc_end5:
	.size	_ZN8APFilterD2Ev, .Lfunc_end5-_ZN8APFilterD2Ev
	.cfi_endproc
	.fnend

	.section	".note.GNU-stack","",%progbits
	.eabi_attribute	30, 2	@ Tag_ABI_optimization_goals