	.text
	.syntax unified
	.eabi_attribute	67, "2.09"	@ Tag_conformance
	.cpu	cortex-a8
	.eabi_attribute	6, 10	@ Tag_CPU_arch
	.eabi_attribute	7, 65	@ Tag_CPU_arch_profile
	.eabi_attribute	8, 1	@ Tag_ARM_ISA_use
	.eabi_attribute	9, 2	@ Tag_THUMB_ISA_use
	.fpu	neon
	.eabi_attribute	17, 1	@ Tag_ABI_PCS_GOT_use
	.eabi_attribute	20, 2	@ Tag_ABI_FP_denormal
	.eabi_attribute	23, 1	@ Tag_ABI_FP_number_model
	.eabi_attribute	34, 1	@ Tag_CPU_unaligned_access
	.eabi_attribute	24, 1	@ Tag_ABI_align_needed
	.eabi_attribute	25, 1	@ Tag_ABI_align_preserved
	.eabi_attribute	28, 1	@ Tag_ABI_VFP_args
	.eabi_attribute	38, 1	@ Tag_ABI_FP_16bit_format
	.eabi_attribute	18, 4	@ Tag_ABI_PCS_wchar_t
	.eabi_attribute	26, 2	@ Tag_ABI_enum_size
	.eabi_attribute	14, 0	@ Tag_ABI_PCS_R9_use
	.eabi_attribute	68, 1	@ Tag_Virtualization_use
	.file	"/root/Bela/projects/vintage_effect/build/Distortion.bc"
	.file	1 "/usr/bin/../lib/gcc/arm-linux-gnueabihf/6.3.0/../../../../include/arm-linux-gnueabihf/c++/6.3.0/bits" "c++config.h"
	.file	2 "/usr/include/arm-linux-gnueabihf/bits" "math-finite.h"
	.file	3 "/usr/include/arm-linux-gnueabihf/bits" "mathcalls.h"
	.file	4 "/usr/include/arm-linux-gnueabihf/bits" "mathdef.h"
	.globl	_ZN10DistortionC2Ev
	.p2align	2
	.type	_ZN10DistortionC2Ev,%function
_ZN10DistortionC2Ev:                    @ @_ZN10DistortionC2Ev
.Lfunc_begin0:
	.file	5 "/root/Bela/projects/vintage_effect" "Distortion.cpp"
	.loc	5 3 0                   @ /root/Bela/projects/vintage_effect/Distortion.cpp:3:0
	.fnstart
	.cfi_startproc
@ BB#0:
	@DEBUG_VALUE: Distortion:this <- %R0
	.loc	5 3 13 prologue_end     @ /root/Bela/projects/vintage_effect/Distortion.cpp:3:13
	b	_ZN8LPFilterC1Ev
.Ltmp0:
.Lfunc_end0:
	.size	_ZN10DistortionC2Ev, .Lfunc_end0-_ZN10DistortionC2Ev
	.cfi_endproc
	.file	6 "/root/Bela/projects/vintage_effect" "LPFilter.h"
	.file	7 "/root/Bela/projects/vintage_effect" "Distortion.h"
	.fnend

	.globl	_ZN10Distortion13setSampleRateEi
	.p2align	2
	.type	_ZN10Distortion13setSampleRateEi,%function
_ZN10Distortion13setSampleRateEi:       @ @_ZN10Distortion13setSampleRateEi
.Lfunc_begin1:
	.loc	5 6 0                   @ /root/Bela/projects/vintage_effect/Distortion.cpp:6:0
	.fnstart
	.cfi_startproc
@ BB#0:
	.save	{r4, r10, r11, lr}
	push	{r4, r10, r11, lr}
.Ltmp1:
	.cfi_def_cfa_offset 16
.Ltmp2:
	.cfi_offset lr, -4
.Ltmp3:
	.cfi_offset r11, -8
.Ltmp4:
	.cfi_offset r10, -12
.Ltmp5:
	.cfi_offset r4, -16
	.setfp	r11, sp, #8
	add	r11, sp, #8
.Ltmp6:
	.cfi_def_cfa r11, 8
	@DEBUG_VALUE: setSampleRate:this <- %R0
	@DEBUG_VALUE: setSampleRate:rate <- %R1
	mov	r4, r0
.Ltmp7:
	@DEBUG_VALUE: setSampleRate:this <- %R4
	.loc	5 7 14 prologue_end     @ /root/Bela/projects/vintage_effect/Distortion.cpp:7:14
	str	r1, [r4, #52]
	.loc	5 8 6                   @ /root/Bela/projects/vintage_effect/Distortion.cpp:8:6
	bl	_ZN8LPFilter13setSampleRateEi
.Ltmp8:
	.loc	5 9 8                   @ /root/Bela/projects/vintage_effect/Distortion.cpp:9:8
	movw	r0, #16384
	movt	r0, #17948
	str	r0, [r4, #64]
	.loc	5 10 1                  @ /root/Bela/projects/vintage_effect/Distortion.cpp:10:1
	pop	{r4, r10, r11, pc}
.Ltmp9:
.Lfunc_end1:
	.size	_ZN10Distortion13setSampleRateEi, .Lfunc_end1-_ZN10Distortion13setSampleRateEi
	.cfi_endproc
	.fnend

	.globl	_ZN10Distortion7setTypeEi
	.p2align	2
	.type	_ZN10Distortion7setTypeEi,%function
_ZN10Distortion7setTypeEi:              @ @_ZN10Distortion7setTypeEi
.Lfunc_begin2:
	.loc	5 13 0                  @ /root/Bela/projects/vintage_effect/Distortion.cpp:13:0
	.fnstart
	.cfi_startproc
@ BB#0:
	@DEBUG_VALUE: setType:this <- %R0
	@DEBUG_VALUE: setType:t <- %R1
	.loc	5 14 7 prologue_end     @ /root/Bela/projects/vintage_effect/Distortion.cpp:14:7
	str	r1, [r0, #60]
	.loc	5 15 1                  @ /root/Bela/projects/vintage_effect/Distortion.cpp:15:1
	bx	lr
.Ltmp10:
.Lfunc_end2:
	.size	_ZN10Distortion7setTypeEi, .Lfunc_end2-_ZN10Distortion7setTypeEi
	.cfi_endproc
	.fnend

	.globl	_ZN10Distortion7setGainEf
	.p2align	2
	.type	_ZN10Distortion7setGainEf,%function
_ZN10Distortion7setGainEf:              @ @_ZN10Distortion7setGainEf
.Lfunc_begin3:
	.loc	5 22 0                  @ /root/Bela/projects/vintage_effect/Distortion.cpp:22:0
	.fnstart
	.cfi_startproc
@ BB#0:
	.save	{r4, r10, r11, lr}
	push	{r4, r10, r11, lr}
.Ltmp11:
	.cfi_def_cfa_offset 16
.Ltmp12:
	.cfi_offset lr, -4
.Ltmp13:
	.cfi_offset r11, -8
.Ltmp14:
	.cfi_offset r10, -12
.Ltmp15:
	.cfi_offset r4, -16
	.setfp	r11, sp, #8
	add	r11, sp, #8
.Ltmp16:
	.cfi_def_cfa r11, 8
	@DEBUG_VALUE: setGain:this <- %R0
	@DEBUG_VALUE: setGain:db <- %S0
.Ltmp17:
	.loc	5 23 27 prologue_end    @ /root/Bela/projects/vintage_effect/Distortion.cpp:23:27
	vldr	s2, .LCPI3_0
                                        @ kill: %S0<def> %S0<kill> %D0<def>
.Ltmp18:
	mov	r4, r0
.Ltmp19:
	@DEBUG_VALUE: setGain:this <- %R4
	vmul.f32	d1, d0, d1
	.loc	5 23 12 is_stmt 0 discriminator 1 @ /root/Bela/projects/vintage_effect/Distortion.cpp:23:12
	vmov.f32	d0, #1.000000e+01
	vmov.f32	s1, s2
	bl	powf
.Ltmp20:
	@DEBUG_VALUE: setGain:g <- %S0
	.loc	5 24 8 is_stmt 1        @ /root/Bela/projects/vintage_effect/Distortion.cpp:24:8
	vstr	s0, [r4, #56]
	.loc	5 25 1                  @ /root/Bela/projects/vintage_effect/Distortion.cpp:25:1
	pop	{r4, r10, r11, pc}
.Ltmp21:
	.p2align	2
@ BB#1:
.LCPI3_0:
	.long	1028443341              @ float 0.0500000007
.Lfunc_end3:
	.size	_ZN10Distortion7setGainEf, .Lfunc_end3-_ZN10Distortion7setGainEf
	.cfi_endproc
	.fnend

	.globl	_ZN10Distortion7setToneEf
	.p2align	2
	.type	_ZN10Distortion7setToneEf,%function
_ZN10Distortion7setToneEf:              @ @_ZN10Distortion7setToneEf
.Lfunc_begin4:
	.loc	5 32 0                  @ /root/Bela/projects/vintage_effect/Distortion.cpp:32:0
	.fnstart
	.cfi_startproc
@ BB#0:
	@DEBUG_VALUE: setTone:this <- %R0
	@DEBUG_VALUE: setTone:tone <- %S0
	.loc	5 33 8 prologue_end     @ /root/Bela/projects/vintage_effect/Distortion.cpp:33:8
	vstr	s0, [r0, #64]
	.loc	5 34 1                  @ /root/Bela/projects/vintage_effect/Distortion.cpp:34:1
	bx	lr
.Ltmp22:
.Lfunc_end4:
	.size	_ZN10Distortion7setToneEf, .Lfunc_end4-_ZN10Distortion7setToneEf
	.cfi_endproc
	.fnend

	.globl	_ZN10Distortion6setMixEf
	.p2align	2
	.type	_ZN10Distortion6setMixEf,%function
_ZN10Distortion6setMixEf:               @ @_ZN10Distortion6setMixEf
.Lfunc_begin5:
	.loc	5 41 0                  @ /root/Bela/projects/vintage_effect/Distortion.cpp:41:0
	.fnstart
	.cfi_startproc
@ BB#0:
	@DEBUG_VALUE: setMix:this <- %R0
	@DEBUG_VALUE: setMix:mix <- %S0
	.loc	5 42 7 prologue_end     @ /root/Bela/projects/vintage_effect/Distortion.cpp:42:7
	vstr	s0, [r0, #68]
	.loc	5 43 1                  @ /root/Bela/projects/vintage_effect/Distortion.cpp:43:1
	bx	lr
.Ltmp23:
.Lfunc_end5:
	.size	_ZN10Distortion6setMixEf, .Lfunc_end5-_ZN10Distortion6setMixEf
	.cfi_endproc
	.fnend

	.globl	_ZN10Distortion7processEf
	.p2align	2
	.type	_ZN10Distortion7processEf,%function
_ZN10Distortion7processEf:              @ @_ZN10Distortion7processEf
.Lfunc_begin6:
	.loc	5 50 0                  @ /root/Bela/projects/vintage_effect/Distortion.cpp:50:0
	.fnstart
	.cfi_startproc
@ BB#0:
	.save	{r4, r10, r11, lr}
	push	{r4, r10, r11, lr}
.Ltmp24:
	.cfi_def_cfa_offset 16
.Ltmp25:
	.cfi_offset lr, -4
.Ltmp26:
	.cfi_offset r11, -8
.Ltmp27:
	.cfi_offset r10, -12
.Ltmp28:
	.cfi_offset r4, -16
	.setfp	r11, sp, #8
	add	r11, sp, #8
.Ltmp29:
	.cfi_def_cfa r11, 8
	.vsave	{d8, d9}
	vpush	{d8, d9}
.Ltmp30:
	.cfi_offset d9, -24
.Ltmp31:
	.cfi_offset d8, -32
	@DEBUG_VALUE: process:this <- %R0
	@DEBUG_VALUE: process:in <- %S0
.Ltmp32:
	@DEBUG_VALUE: process:out <- %S0
	@DEBUG_VALUE: process:input <- %S0
	mov	r4, r0
.Ltmp33:
	@DEBUG_VALUE: process:this <- %R4
	vorr	d8, d0, d0
.Ltmp34:
	@DEBUG_VALUE: process:input <- %S16
	@DEBUG_VALUE: process:out <- %S16
	@DEBUG_VALUE: process:in <- %S16
	.loc	5 53 12 prologue_end    @ /root/Bela/projects/vintage_effect/Distortion.cpp:53:12
	vldr	s0, [r4, #56]
.Ltmp35:
	.loc	5 55 5                  @ /root/Bela/projects/vintage_effect/Distortion.cpp:55:5
	ldr	r0, [r4, #60]
.Ltmp36:
	.loc	5 53 10                 @ /root/Bela/projects/vintage_effect/Distortion.cpp:53:10
	vmul.f32	d0, d0, d8
.Ltmp37:
	@DEBUG_VALUE: process:in <- %S0
	.loc	5 55 5                  @ /root/Bela/projects/vintage_effect/Distortion.cpp:55:5
	cmp	r0, #2
	beq	.LBB6_4
.Ltmp38:
@ BB#1:
	@DEBUG_VALUE: process:out <- %S16
	@DEBUG_VALUE: process:input <- %S16
	@DEBUG_VALUE: process:this <- %R4
	@DEBUG_VALUE: process:in <- %S0
	cmp	r0, #1
	beq	.LBB6_6
.Ltmp39:
@ BB#2:
	@DEBUG_VALUE: process:out <- %S16
	@DEBUG_VALUE: process:input <- %S16
	@DEBUG_VALUE: process:this <- %R4
	@DEBUG_VALUE: process:in <- %S0
	vorr	d1, d8, d8
	cmp	r0, #0
	bne	.LBB6_16
.Ltmp40:
@ BB#3:
	@DEBUG_VALUE: process:out <- %S16
	@DEBUG_VALUE: process:input <- %S16
	@DEBUG_VALUE: process:this <- %R4
	@DEBUG_VALUE: process:in <- %S0
	@DEBUG_VALUE: threshold <- 1.000000e+00
	.loc	5 57 15                 @ /root/Bela/projects/vintage_effect/Distortion.cpp:57:15
	vmov.f32	d2, #1.000000e+00
.Ltmp41:
	.loc	5 59 20                 @ /root/Bela/projects/vintage_effect/Distortion.cpp:59:20
	vmov.f32	d16, #-1.000000e+00
.Ltmp42:
	.loc	5 57 12                 @ /root/Bela/projects/vintage_effect/Distortion.cpp:57:12
	vcmpe.f32	s0, s4
	vmrs	APSR_nzcv, fpscr
.Ltmp43:
	.loc	5 60 13                 @ /root/Bela/projects/vintage_effect/Distortion.cpp:60:13
	vmax.f32	d1, d0, d16
.Ltmp44:
	.loc	5 57 12                 @ /root/Bela/projects/vintage_effect/Distortion.cpp:57:12
	vmovgt.f32	s2, s4
	b	.LBB6_16
.Ltmp45:
.LBB6_4:
	@DEBUG_VALUE: process:out <- %S16
	@DEBUG_VALUE: process:input <- %S16
	@DEBUG_VALUE: process:this <- %R4
	@DEBUG_VALUE: process:in <- %S0
	.loc	5 84 12                 @ /root/Bela/projects/vintage_effect/Distortion.cpp:84:12
	vcmpe.f32	s0, #0
	vmrs	APSR_nzcv, fpscr
	ble	.LBB6_8
.Ltmp46:
@ BB#5:
	@DEBUG_VALUE: process:out <- %S16
	@DEBUG_VALUE: process:input <- %S16
	@DEBUG_VALUE: process:this <- %R4
	@DEBUG_VALUE: process:in <- %S0
	.loc	5 85 31                 @ /root/Bela/projects/vintage_effect/Distortion.cpp:85:31
	vneg.f32	d0, d0
.Ltmp47:
	.loc	5 85 26 is_stmt 0       @ /root/Bela/projects/vintage_effect/Distortion.cpp:85:26
                                        @ kill: %S0<def> %S0<kill> %D0<kill>
	bl	__expf_finite
	.loc	5 85 24                 @ /root/Bela/projects/vintage_effect/Distortion.cpp:85:24
	vmov.f32	d16, #1.000000e+00
	.loc	5 85 26                 @ /root/Bela/projects/vintage_effect/Distortion.cpp:85:26
                                        @ kill: %S0<def> %S0<kill> %D0<def>
	.loc	5 85 24                 @ /root/Bela/projects/vintage_effect/Distortion.cpp:85:24
	vsub.f32	d1, d16, d0
.Ltmp48:
	@DEBUG_VALUE: process:out <- %S2
	b	.LBB6_16
.Ltmp49:
.LBB6_6:
	@DEBUG_VALUE: process:out <- %S16
	@DEBUG_VALUE: process:input <- %S16
	@DEBUG_VALUE: process:this <- %R4
	@DEBUG_VALUE: process:in <- %S0
	@DEBUG_VALUE: threshold1 <- 3.333333e-01
	@DEBUG_VALUE: threshold2 <- 6.666667e-01
	.loc	5 68 15 is_stmt 1       @ /root/Bela/projects/vintage_effect/Distortion.cpp:68:15
	vldr	s2, .LCPI6_0
.Ltmp50:
	.loc	5 68 12 is_stmt 0       @ /root/Bela/projects/vintage_effect/Distortion.cpp:68:12
	vcmpe.f32	s0, s2
	vmrs	APSR_nzcv, fpscr
	ble	.LBB6_9
.Ltmp51:
@ BB#7:
	@DEBUG_VALUE: process:out <- %S16
	@DEBUG_VALUE: process:input <- %S16
	@DEBUG_VALUE: process:this <- %R4
	@DEBUG_VALUE: process:in <- %S0
	vmov.f32	d1, #1.000000e+00
	b	.LBB6_16
.Ltmp52:
.LBB6_8:
	@DEBUG_VALUE: process:out <- %S16
	@DEBUG_VALUE: process:input <- %S16
	@DEBUG_VALUE: process:this <- %R4
	@DEBUG_VALUE: process:in <- %S0
	.loc	5 87 27 is_stmt 1       @ /root/Bela/projects/vintage_effect/Distortion.cpp:87:27
                                        @ kill: %S0<def> %S0<kill> %D0<kill>
.Ltmp53:
	.loc	5 87 25 is_stmt 0       @ /root/Bela/projects/vintage_effect/Distortion.cpp:87:25
	vmov.f32	d9, #-1.000000e+00
	.loc	5 87 27                 @ /root/Bela/projects/vintage_effect/Distortion.cpp:87:27
	bl	__expf_finite
                                        @ kill: %S0<def> %S0<kill> %D0<def>
	.loc	5 87 25                 @ /root/Bela/projects/vintage_effect/Distortion.cpp:87:25
	vadd.f32	d1, d0, d9
.Ltmp54:
	@DEBUG_VALUE: process:out <- %S2
	b	.LBB6_16
.Ltmp55:
.LBB6_9:
	@DEBUG_VALUE: process:out <- %S16
	@DEBUG_VALUE: process:input <- %S16
	@DEBUG_VALUE: process:this <- %R4
	@DEBUG_VALUE: process:in <- %S0
	.loc	5 70 20 is_stmt 1       @ /root/Bela/projects/vintage_effect/Distortion.cpp:70:20
	vldr	s2, .LCPI6_1
.Ltmp56:
	.loc	5 70 17 is_stmt 0       @ /root/Bela/projects/vintage_effect/Distortion.cpp:70:17
	vcmpe.f32	s0, s2
	vmrs	APSR_nzcv, fpscr
	ble	.LBB6_11
.Ltmp57:
@ BB#10:
	@DEBUG_VALUE: process:out <- %S16
	@DEBUG_VALUE: process:input <- %S16
	@DEBUG_VALUE: process:this <- %R4
	@DEBUG_VALUE: process:in <- %S0
	.loc	5 71 39 is_stmt 1       @ /root/Bela/projects/vintage_effect/Distortion.cpp:71:39
	vmov.f32	d16, #3.000000e+00
	.loc	5 71 33 is_stmt 0       @ /root/Bela/projects/vintage_effect/Distortion.cpp:71:33
	vmov.f32	d17, #2.000000e+00
	.loc	5 71 39                 @ /root/Bela/projects/vintage_effect/Distortion.cpp:71:39
	vmul.f32	d18, d0, d16
	.loc	5 71 33                 @ /root/Bela/projects/vintage_effect/Distortion.cpp:71:33
	vsub.f32	d17, d17, d18
	b	.LBB6_15
.Ltmp58:
.LBB6_11:
	@DEBUG_VALUE: process:out <- %S16
	@DEBUG_VALUE: process:input <- %S16
	@DEBUG_VALUE: process:this <- %R4
	@DEBUG_VALUE: process:in <- %S0
	.loc	5 73 20 is_stmt 1       @ /root/Bela/projects/vintage_effect/Distortion.cpp:73:20
	vldr	s2, .LCPI6_2
.Ltmp59:
	.loc	5 73 17 is_stmt 0       @ /root/Bela/projects/vintage_effect/Distortion.cpp:73:17
	vcmpe.f32	s0, s2
	vmrs	APSR_nzcv, fpscr
	bge	.LBB6_13
.Ltmp60:
@ BB#12:
	@DEBUG_VALUE: process:out <- %S16
	@DEBUG_VALUE: process:input <- %S16
	@DEBUG_VALUE: process:this <- %R4
	@DEBUG_VALUE: process:in <- %S0
	vmov.f32	d1, #-1.000000e+00
	b	.LBB6_16
.Ltmp61:
.LBB6_13:
	@DEBUG_VALUE: process:out <- %S16
	@DEBUG_VALUE: process:input <- %S16
	@DEBUG_VALUE: process:this <- %R4
	@DEBUG_VALUE: process:in <- %S0
	.loc	5 75 20 is_stmt 1       @ /root/Bela/projects/vintage_effect/Distortion.cpp:75:20
	vldr	s2, .LCPI6_3
.Ltmp62:
	.loc	5 75 17 is_stmt 0       @ /root/Bela/projects/vintage_effect/Distortion.cpp:75:17
	vcmpe.f32	s0, s2
	vmrs	APSR_nzcv, fpscr
	bge	.LBB6_17
.Ltmp63:
@ BB#14:
	@DEBUG_VALUE: process:out <- %S16
	@DEBUG_VALUE: process:input <- %S16
	@DEBUG_VALUE: process:this <- %R4
	@DEBUG_VALUE: process:in <- %S0
	.loc	5 76 40 is_stmt 1       @ /root/Bela/projects/vintage_effect/Distortion.cpp:76:40
	vmov.f32	d16, #3.000000e+00
	.loc	5 76 34 is_stmt 0       @ /root/Bela/projects/vintage_effect/Distortion.cpp:76:34
	vmov.f32	d17, #2.000000e+00
	.loc	5 76 40                 @ /root/Bela/projects/vintage_effect/Distortion.cpp:76:40
	vmul.f32	d18, d0, d16
	.loc	5 76 34                 @ /root/Bela/projects/vintage_effect/Distortion.cpp:76:34
	vadd.f32	d17, d18, d17
.Ltmp64:
.LBB6_15:
	@DEBUG_VALUE: process:out <- %S16
	@DEBUG_VALUE: process:input <- %S16
	@DEBUG_VALUE: process:this <- %R4
	@DEBUG_VALUE: process:in <- %S0
	.loc	5 71 44 is_stmt 1       @ /root/Bela/projects/vintage_effect/Distortion.cpp:71:44
	vmul.f32	d17, d17, d17
	.loc	5 71 25 is_stmt 0       @ /root/Bela/projects/vintage_effect/Distortion.cpp:71:25
	vsub.f32	d16, d16, d17
	.loc	5 72 44 is_stmt 1       @ /root/Bela/projects/vintage_effect/Distortion.cpp:72:44
	vmul.f32	d1, d16, d1
.Ltmp65:
	@DEBUG_VALUE: process:out <- %S2
.LBB6_16:
	@DEBUG_VALUE: process:input <- %S16
	@DEBUG_VALUE: process:this <- %R4
	.loc	5 90 15                 @ /root/Bela/projects/vintage_effect/Distortion.cpp:90:15
	vmov.f32	s0, s2
	.loc	5 90 37 is_stmt 0       @ /root/Bela/projects/vintage_effect/Distortion.cpp:90:37
	vldr	s1, [r4, #64]
	.loc	5 90 15                 @ /root/Bela/projects/vintage_effect/Distortion.cpp:90:15
	mov	r0, r4
	bl	_ZN8LPFilter17getFilteredSampleEff
	.loc	5 92 18 is_stmt 1       @ /root/Bela/projects/vintage_effect/Distortion.cpp:92:18
	vldr	s2, [r4, #68]
	.loc	5 90 15                 @ /root/Bela/projects/vintage_effect/Distortion.cpp:90:15
                                        @ kill: %S0<def> %S0<kill> %D0<def>
.Ltmp66:
	@DEBUG_VALUE: process:out <- %S0
	.loc	5 92 16                 @ /root/Bela/projects/vintage_effect/Distortion.cpp:92:16
	vmov.f64	d17, #1.000000e+00
	.loc	5 92 18 is_stmt 0       @ /root/Bela/projects/vintage_effect/Distortion.cpp:92:18
	vcvt.f64.f32	d16, s2
	.loc	5 92 16                 @ /root/Bela/projects/vintage_effect/Distortion.cpp:92:16
	vsub.f64	d16, d17, d16
	.loc	5 92 24                 @ /root/Bela/projects/vintage_effect/Distortion.cpp:92:24
	vcvt.f64.f32	d17, s16
	.loc	5 92 23                 @ /root/Bela/projects/vintage_effect/Distortion.cpp:92:23
	vmul.f64	d16, d16, d17
	.loc	5 92 36                 @ /root/Bela/projects/vintage_effect/Distortion.cpp:92:36
	vmul.f32	d0, d1, d0
.Ltmp67:
	.loc	5 92 32                 @ /root/Bela/projects/vintage_effect/Distortion.cpp:92:32
	vcvt.f64.f32	d17, s0
	.loc	5 92 30                 @ /root/Bela/projects/vintage_effect/Distortion.cpp:92:30
	vadd.f64	d16, d16, d17
	.loc	5 92 11                 @ /root/Bela/projects/vintage_effect/Distortion.cpp:92:11
	vcvt.f32.f64	s0, d16
.Ltmp68:
	@DEBUG_VALUE: process:out <- %S0
	.loc	5 93 2 is_stmt 1        @ /root/Bela/projects/vintage_effect/Distortion.cpp:93:2
	vpop	{d8, d9}
.Ltmp69:
	pop	{r4, r10, r11, pc}
.Ltmp70:
.LBB6_17:
	@DEBUG_VALUE: process:out <- %S16
	@DEBUG_VALUE: process:input <- %S16
	@DEBUG_VALUE: process:this <- %R4
	@DEBUG_VALUE: process:in <- %S0
	.loc	5 79 21                 @ /root/Bela/projects/vintage_effect/Distortion.cpp:79:21
	vadd.f32	d1, d0, d0
.Ltmp71:
	@DEBUG_VALUE: process:out <- %S2
	b	.LBB6_16
.Ltmp72:
	.p2align	2
@ BB#18:
.LCPI6_0:
	.long	1059760811              @ float 0.666666686
.LCPI6_1:
	.long	1051372203              @ float 0.333333343
.LCPI6_2:
	.long	3207244459              @ float -0.666666686
.LCPI6_3:
	.long	3198855851              @ float -0.333333343
.Lfunc_end6:
	.size	_ZN10Distortion7processEf, .Lfunc_end6-_ZN10Distortion7processEf
	.cfi_endproc
	.fnend

	.globl	_ZN10DistortionD2Ev
	.p2align	2
	.type	_ZN10DistortionD2Ev,%function
_ZN10DistortionD2Ev:                    @ @_ZN10DistortionD2Ev
.Lfunc_begin7:
	.loc	5 97 0                  @ /root/Bela/projects/vintage_effect/Distortion.cpp:97:0
	.fnstart
	.cfi_startproc
@ BB#0:
	@DEBUG_VALUE: ~Distortion:this <- %R0
	.loc	5 99 1 prologue_end     @ /root/Bela/projects/vintage_effect/Distortion.cpp:99:1
	b	_ZN8LPFilterD1Ev
.Ltmp73:
.Lfunc_end7:
	.size	_ZN10DistortionD2Ev, .Lfunc_end7-_ZN10DistortionD2Ev
	.cfi_endproc
	.fnend

	.section	".note.GNU-stack","",%progbits
	.eabi_attribute	30, 2	@ Tag_ABI_optimization_goals