	.text
	.syntax unified
	.eabi_attribute	67, "2.09"	@ Tag_conformance
	.cpu	cortex-a8
	.eabi_attribute	6, 10	@ Tag_CPU_arch
	.eabi_attribute	7, 65	@ Tag_CPU_arch_profile
	.eabi_attribute	8, 1	@ Tag_ARM_ISA_use
	.eabi_attribute	9, 2	@ Tag_THUMB_ISA_use
	.fpu	neon
	.eabi_attribute	17, 1	@ Tag_ABI_PCS_GOT_use
	.eabi_attribute	20, 2	@ Tag_ABI_FP_denormal
	.eabi_attribute	23, 1	@ Tag_ABI_FP_number_model
	.eabi_attribute	34, 1	@ Tag_CPU_unaligned_access
	.eabi_attribute	24, 1	@ Tag_ABI_align_needed
	.eabi_attribute	25, 1	@ Tag_ABI_align_preserved
	.eabi_attribute	28, 1	@ Tag_ABI_VFP_args
	.eabi_attribute	38, 1	@ Tag_ABI_FP_16bit_format
	.eabi_attribute	18, 4	@ Tag_ABI_PCS_wchar_t
	.eabi_attribute	26, 2	@ Tag_ABI_enum_size
	.eabi_attribute	14, 0	@ Tag_ABI_PCS_R9_use
	.eabi_attribute	68, 1	@ Tag_Virtualization_use
	.file	"/root/Bela/projects/vintage_effect/build/Reverb.bc"
	.file	1 "/usr/bin/../lib/gcc/arm-linux-gnueabihf/6.3.0/../../../../include/arm-linux-gnueabihf/c++/6.3.0/bits" "c++config.h"
	.file	2 "/usr/bin/../lib/gcc/arm-linux-gnueabihf/6.3.0/../../../../include/c++/6.3.0/bits" "cpp_type_traits.h"
	.file	3 "/usr/bin/../lib/gcc/arm-linux-gnueabihf/6.3.0/../../../../include/c++/6.3.0/bits" "alloc_traits.h"
	.file	4 "/usr/bin/../lib/gcc/arm-linux-gnueabihf/6.3.0/../../../../include/c++/6.3.0/ext" "new_allocator.h"
	.file	5 "/usr/bin/../lib/gcc/arm-linux-gnueabihf/6.3.0/../../../../include/arm-linux-gnueabihf/c++/6.3.0/bits" "c++allocator.h"
	.file	6 "/usr/bin/../lib/gcc/arm-linux-gnueabihf/6.3.0/../../../../include/c++/6.3.0/bits" "allocator.h"
	.file	7 "/usr/bin/../lib/gcc/arm-linux-gnueabihf/6.3.0/../../../../include/c++/6.3.0/ext" "alloc_traits.h"
	.file	8 "/usr/bin/../lib/gcc/arm-linux-gnueabihf/6.3.0/../../../../include/c++/6.3.0/bits" "stl_vector.h"
	.file	9 "/usr/bin/../lib/gcc/arm-linux-gnueabihf/6.3.0/../../../../include/c++/6.3.0/bits" "stl_iterator.h"
	.file	10 "/usr/bin/../lib/gcc/arm-linux-gnueabihf/6.3.0/../../../../include/c++/6.3.0/bits" "stl_iterator_base_types.h"
	.file	11 "/usr/bin/../lib/gcc/arm-linux-gnueabihf/6.3.0/../../../../include/c++/6.3.0" "type_traits"
	.file	12 "/usr/include/arm-linux-gnueabihf/bits" "math-finite.h"
	.file	13 "/usr/include/arm-linux-gnueabihf/bits" "mathcalls.h"
	.file	14 "/usr/include/arm-linux-gnueabihf/bits" "mathdef.h"
	.file	15 "/usr/bin/../lib/gcc/arm-linux-gnueabihf/6.3.0/../../../../include/c++/6.3.0/debug" "debug.h"
	.file	16 "/usr/bin/../lib/gcc/arm-linux-gnueabihf/6.3.0/../../../../include/c++/6.3.0/bits" "exception_ptr.h"
	.file	17 "/root/Bela/projects/vintage_effect/build" "Reverb.cpp"
	.globl	_ZN6ReverbC2Ev
	.p2align	4
	.type	_ZN6ReverbC2Ev,%function
_ZN6ReverbC2Ev:                         @ @_ZN6ReverbC2Ev
.Lfunc_begin0:
	.file	18 "/root/Bela/projects/vintage_effect" "Reverb.cpp"
	.loc	18 4 0                  @ /root/Bela/projects/vintage_effect/Reverb.cpp:4:0
	.fnstart
	.cfi_startproc
@ BB#0:
	.save	{r4, r5, r6, r7, r8, r9, r10, r11, lr}
	push	{r4, r5, r6, r7, r8, r9, r10, r11, lr}
.Ltmp53:
	.cfi_def_cfa_offset 36
.Ltmp54:
	.cfi_offset lr, -4
.Ltmp55:
	.cfi_offset r11, -8
.Ltmp56:
	.cfi_offset r10, -12
.Ltmp57:
	.cfi_offset r9, -16
.Ltmp58:
	.cfi_offset r8, -20
.Ltmp59:
	.cfi_offset r7, -24
.Ltmp60:
	.cfi_offset r6, -28
.Ltmp61:
	.cfi_offset r5, -32
.Ltmp62:
	.cfi_offset r4, -36
	.setfp	r11, sp, #28
	add	r11, sp, #28
.Ltmp63:
	.cfi_def_cfa r11, 8
	.pad	#12
	sub	sp, sp, #12
	@DEBUG_VALUE: Reverb:this <- %R0
	mov	r4, r0
.Ltmp64:
	@DEBUG_VALUE: Reverb:this <- %R4
	.loc	18 3 9 prologue_end     @ /root/Bela/projects/vintage_effect/Reverb.cpp:3:9
	bl	_ZN8LPFilterC1Ev
	add	r5, r4, #52
.Ltmp0:
	mov	r0, r5
	bl	_ZN8HPFilterC1Ev
.Ltmp1:
.Ltmp65:
@ BB#1:
	@DEBUG_VALUE: Reverb:this <- %R4
	mov	r0, #0
.Ltmp66:
	.loc	8 87 22                 @ /usr/bin/../lib/gcc/arm-linux-gnueabihf/6.3.0/../../../../include/c++/6.3.0/bits/stl_vector.h:87:22
	str	r0, [r4, #128]
	.loc	8 87 34 is_stmt 0       @ /usr/bin/../lib/gcc/arm-linux-gnueabihf/6.3.0/../../../../include/c++/6.3.0/bits/stl_vector.h:87:34
	str	r0, [r4, #132]
	.loc	8 87 47                 @ /usr/bin/../lib/gcc/arm-linux-gnueabihf/6.3.0/../../../../include/c++/6.3.0/bits/stl_vector.h:87:47
	str	r0, [r4, #136]
.Ltmp67:
	.loc	18 3 9 is_stmt 1 discriminator 1 @ /root/Bela/projects/vintage_effect/Reverb.cpp:3:9
	add	r0, r4, #152
.Ltmp3:
	str	r0, [sp, #8]            @ 4-byte Spill
	str	r5, [sp, #4]            @ 4-byte Spill
	bl	_ZN8APFilterC1Ev
.Ltmp4:
.Ltmp68:
@ BB#2:
	@DEBUG_VALUE: Reverb:this <- %R4
	.loc	18 3 9 is_stmt 0 discriminator 2 @ /root/Bela/projects/vintage_effect/Reverb.cpp:3:9
	add	r10, r4, #196
.Ltmp6:
	mov	r0, r10
	bl	_ZN8APFilterC1Ev
.Ltmp7:
.Ltmp69:
@ BB#3:
	@DEBUG_VALUE: Reverb:this <- %R4
	.loc	18 3 9 discriminator 3  @ /root/Bela/projects/vintage_effect/Reverb.cpp:3:9
	add	r5, r4, #240
.Ltmp9:
	mov	r0, r5
	bl	_ZN8APFilterC1Ev
.Ltmp10:
.Ltmp70:
@ BB#4:
	@DEBUG_VALUE: Reverb:this <- %R4
	.loc	18 3 9 discriminator 4  @ /root/Bela/projects/vintage_effect/Reverb.cpp:3:9
	add	r6, r4, #284
.Ltmp12:
	mov	r0, r6
	bl	_ZN10CombFilterC1Ev
.Ltmp13:
.Ltmp71:
@ BB#5:
	@DEBUG_VALUE: Reverb:this <- %R4
	.loc	18 3 9 discriminator 5  @ /root/Bela/projects/vintage_effect/Reverb.cpp:3:9
	add	r7, r4, #328
.Ltmp15:
	mov	r0, r7
	bl	_ZN10CombFilterC1Ev
.Ltmp16:
.Ltmp72:
@ BB#6:
	@DEBUG_VALUE: Reverb:this <- %R4
	.loc	18 3 9 discriminator 6  @ /root/Bela/projects/vintage_effect/Reverb.cpp:3:9
	add	r8, r4, #372
.Ltmp18:
	mov	r0, r8
	bl	_ZN10CombFilterC1Ev
.Ltmp19:
.Ltmp73:
@ BB#7:
	@DEBUG_VALUE: Reverb:this <- %R4
	.loc	18 3 9 discriminator 7  @ /root/Bela/projects/vintage_effect/Reverb.cpp:3:9
	add	r9, r4, #416
.Ltmp21:
	mov	r0, r9
	bl	_ZN10CombFilterC1Ev
.Ltmp22:
.Ltmp74:
@ BB#8:
	@DEBUG_VALUE: Reverb:this <- %R4
	.loc	18 5 7 is_stmt 1        @ /root/Bela/projects/vintage_effect/Reverb.cpp:5:7
	vldr	s0, .LCPI0_0
.Ltmp24:
	ldr	r0, [sp, #8]            @ 4-byte Reload
	bl	_ZN8APFilter4setGEf
.Ltmp25:
.Ltmp75:
@ BB#9:
	@DEBUG_VALUE: Reverb:this <- %R4
	.loc	18 6 7                  @ /root/Bela/projects/vintage_effect/Reverb.cpp:6:7
.Ltmp26:
	ldr	r0, [sp, #8]            @ 4-byte Reload
	movw	r1, #347
	bl	_ZN8APFilter8setDelayEi
.Ltmp27:
.Ltmp76:
@ BB#10:
	@DEBUG_VALUE: Reverb:this <- %R4
	.loc	18 7 7                  @ /root/Bela/projects/vintage_effect/Reverb.cpp:7:7
	vldr	s0, .LCPI0_0
.Ltmp28:
	mov	r0, r10
	bl	_ZN8APFilter4setGEf
.Ltmp29:
.Ltmp77:
@ BB#11:
	@DEBUG_VALUE: Reverb:this <- %R4
	.loc	18 8 7                  @ /root/Bela/projects/vintage_effect/Reverb.cpp:8:7
.Ltmp30:
	mov	r0, r10
	mov	r1, #133
	bl	_ZN8APFilter8setDelayEi
.Ltmp31:
.Ltmp78:
@ BB#12:
	@DEBUG_VALUE: Reverb:this <- %R4
	.loc	18 9 7                  @ /root/Bela/projects/vintage_effect/Reverb.cpp:9:7
	vldr	s0, .LCPI0_0
.Ltmp32:
	mov	r0, r5
	bl	_ZN8APFilter4setGEf
.Ltmp33:
.Ltmp79:
@ BB#13:
	@DEBUG_VALUE: Reverb:this <- %R4
	.loc	18 10 7                 @ /root/Bela/projects/vintage_effect/Reverb.cpp:10:7
.Ltmp34:
	mov	r0, r5
	mov	r1, #37
	bl	_ZN8APFilter8setDelayEi
.Ltmp35:
.Ltmp80:
@ BB#14:
	@DEBUG_VALUE: Reverb:this <- %R4
	.loc	18 12 7                 @ /root/Bela/projects/vintage_effect/Reverb.cpp:12:7
	vldr	s0, .LCPI0_1
.Ltmp36:
	mov	r0, r6
	bl	_ZN10CombFilter4setGEf
.Ltmp37:
.Ltmp81:
@ BB#15:
	@DEBUG_VALUE: Reverb:this <- %R4
	.loc	18 13 7                 @ /root/Bela/projects/vintage_effect/Reverb.cpp:13:7
.Ltmp38:
	mov	r0, r6
	movw	r1, #1687
	bl	_ZN10CombFilter8setDelayEi
.Ltmp39:
.Ltmp82:
@ BB#16:
	@DEBUG_VALUE: Reverb:this <- %R4
	.loc	18 14 7                 @ /root/Bela/projects/vintage_effect/Reverb.cpp:14:7
	vldr	s0, .LCPI0_2
.Ltmp40:
	mov	r0, r7
	bl	_ZN10CombFilter4setGEf
.Ltmp41:
.Ltmp83:
@ BB#17:
	@DEBUG_VALUE: Reverb:this <- %R4
	.loc	18 15 7                 @ /root/Bela/projects/vintage_effect/Reverb.cpp:15:7
.Ltmp42:
	mov	r0, r7
	movw	r1, #1601
	bl	_ZN10CombFilter8setDelayEi
.Ltmp43:
.Ltmp84:
@ BB#18:
	@DEBUG_VALUE: Reverb:this <- %R4
	.loc	18 16 7                 @ /root/Bela/projects/vintage_effect/Reverb.cpp:16:7
	vldr	s0, .LCPI0_3
.Ltmp44:
	mov	r0, r8
	bl	_ZN10CombFilter4setGEf
.Ltmp45:
.Ltmp85:
@ BB#19:
	@DEBUG_VALUE: Reverb:this <- %R4
	.loc	18 17 7                 @ /root/Bela/projects/vintage_effect/Reverb.cpp:17:7
.Ltmp46:
	mov	r0, r8
	movw	r1, #2053
	bl	_ZN10CombFilter8setDelayEi
.Ltmp47:
.Ltmp86:
@ BB#20:
	@DEBUG_VALUE: Reverb:this <- %R4
	.loc	18 18 7                 @ /root/Bela/projects/vintage_effect/Reverb.cpp:18:7
	vldr	s0, .LCPI0_4
.Ltmp48:
	mov	r0, r9
	bl	_ZN10CombFilter4setGEf
.Ltmp49:
.Ltmp87:
@ BB#21:
	@DEBUG_VALUE: Reverb:this <- %R4
	.loc	18 19 7                 @ /root/Bela/projects/vintage_effect/Reverb.cpp:19:7
.Ltmp50:
	mov	r0, r9
	movw	r1, #2251
	bl	_ZN10CombFilter8setDelayEi
.Ltmp51:
.Ltmp88:
@ BB#22:
	@DEBUG_VALUE: Reverb:this <- %R4
	adr	r0, .LCPI0_5
	.loc	18 22 14                @ /root/Bela/projects/vintage_effect/Reverb.cpp:22:14
	vld1.64	{d16, d17}, [r0:128]
	mov	r0, #0
	.loc	18 24 12                @ /root/Bela/projects/vintage_effect/Reverb.cpp:24:12
	str	r0, [r4, #144]
	.loc	18 25 13                @ /root/Bela/projects/vintage_effect/Reverb.cpp:25:13
	str	r0, [r4, #148]
	.loc	18 22 2                 @ /root/Bela/projects/vintage_effect/Reverb.cpp:22:2
	add	r0, r4, #112
	.loc	18 22 14 is_stmt 0      @ /root/Bela/projects/vintage_effect/Reverb.cpp:22:14
	vst1.32	{d16, d17}, [r0]
.Ltmp89:
	.loc	18 28 1 is_stmt 1       @ /root/Bela/projects/vintage_effect/Reverb.cpp:28:1
	mov	r0, r4
	sub	sp, r11, #28
	pop	{r4, r5, r6, r7, r8, r9, r10, r11, pc}
.Ltmp90:
.LBB0_23:
	@DEBUG_VALUE: Reverb:this <- %R4
.Ltmp23:
	str	r0, [sp]                @ 4-byte Spill
	b	.LBB0_32
.Ltmp91:
.LBB0_24:
	@DEBUG_VALUE: Reverb:this <- %R4
.Ltmp20:
	str	r0, [sp]                @ 4-byte Spill
	b	.LBB0_33
.Ltmp92:
.LBB0_25:
	@DEBUG_VALUE: Reverb:this <- %R4
.Ltmp17:
	str	r0, [sp]                @ 4-byte Spill
	b	.LBB0_34
.Ltmp93:
.LBB0_26:
	@DEBUG_VALUE: Reverb:this <- %R4
.Ltmp14:
	str	r0, [sp]                @ 4-byte Spill
	b	.LBB0_35
.Ltmp94:
.LBB0_27:
	@DEBUG_VALUE: Reverb:this <- %R4
.Ltmp11:
	str	r0, [sp]                @ 4-byte Spill
	b	.LBB0_36
.Ltmp95:
.LBB0_28:
	@DEBUG_VALUE: Reverb:this <- %R4
.Ltmp8:
	str	r0, [sp]                @ 4-byte Spill
	b	.LBB0_37
.Ltmp96:
.LBB0_29:
	@DEBUG_VALUE: Reverb:this <- %R4
.Ltmp5:
	str	r0, [sp]                @ 4-byte Spill
	b	.LBB0_38
.Ltmp97:
.LBB0_30:
	@DEBUG_VALUE: Reverb:this <- %R4
.Ltmp2:
	str	r0, [sp]                @ 4-byte Spill
	b	.LBB0_41
.Ltmp98:
.LBB0_31:
	@DEBUG_VALUE: Reverb:this <- %R4
.Ltmp52:
	str	r0, [sp]                @ 4-byte Spill
.Ltmp99:
	.loc	18 28 1 is_stmt 0 discriminator 9 @ /root/Bela/projects/vintage_effect/Reverb.cpp:28:1
	mov	r0, r9
	bl	_ZN10CombFilterD1Ev
.Ltmp100:
.LBB0_32:
	@DEBUG_VALUE: Reverb:this <- %R4
	.loc	18 28 1 discriminator 10 @ /root/Bela/projects/vintage_effect/Reverb.cpp:28:1
	mov	r0, r8
	bl	_ZN10CombFilterD1Ev
.Ltmp101:
.LBB0_33:
	@DEBUG_VALUE: Reverb:this <- %R4
	.loc	18 28 1 discriminator 11 @ /root/Bela/projects/vintage_effect/Reverb.cpp:28:1
	mov	r0, r7
	bl	_ZN10CombFilterD1Ev
.Ltmp102:
.LBB0_34:
	@DEBUG_VALUE: Reverb:this <- %R4
	.loc	18 28 1 discriminator 12 @ /root/Bela/projects/vintage_effect/Reverb.cpp:28:1
	mov	r0, r6
	bl	_ZN10CombFilterD1Ev
.Ltmp103:
.LBB0_35:
	@DEBUG_VALUE: Reverb:this <- %R4
	.loc	18 28 1 discriminator 13 @ /root/Bela/projects/vintage_effect/Reverb.cpp:28:1
	mov	r0, r5
	bl	_ZN8APFilterD1Ev
.Ltmp104:
.LBB0_36:
	@DEBUG_VALUE: Reverb:this <- %R4
	.loc	18 28 1 discriminator 14 @ /root/Bela/projects/vintage_effect/Reverb.cpp:28:1
	mov	r0, r10
	bl	_ZN8APFilterD1Ev
.Ltmp105:
.LBB0_37:
	@DEBUG_VALUE: Reverb:this <- %R4
	.loc	18 28 1 discriminator 15 @ /root/Bela/projects/vintage_effect/Reverb.cpp:28:1
	ldr	r0, [sp, #8]            @ 4-byte Reload
	bl	_ZN8APFilterD1Ev
.Ltmp106:
.LBB0_38:
	@DEBUG_VALUE: Reverb:this <- %R4
	.loc	8 160 37 is_stmt 1      @ /usr/bin/../lib/gcc/arm-linux-gnueabihf/6.3.0/../../../../include/c++/6.3.0/bits/stl_vector.h:160:37
	ldr	r0, [r4, #128]
.Ltmp107:
	@DEBUG_VALUE: _M_deallocate:__p <- %R0
	@DEBUG_VALUE: deallocate:__p <- %R0
	@DEBUG_VALUE: deallocate:__p <- %R0
	.loc	8 177 6                 @ /usr/bin/../lib/gcc/arm-linux-gnueabihf/6.3.0/../../../../include/c++/6.3.0/bits/stl_vector.h:177:6
	cmp	r0, #0
	beq	.LBB0_40
.Ltmp108:
@ BB#39:
	@DEBUG_VALUE: deallocate:__p <- %R0
	@DEBUG_VALUE: deallocate:__p <- %R0
	@DEBUG_VALUE: _M_deallocate:__p <- %R0
	@DEBUG_VALUE: Reverb:this <- %R4
	.loc	4 110 9                 @ /usr/bin/../lib/gcc/arm-linux-gnueabihf/6.3.0/../../../../include/c++/6.3.0/ext/new_allocator.h:110:9
	bl	_ZdlPv
.Ltmp109:
.LBB0_40:                               @ %_ZNSt6vectorIfSaIfEED2Ev.exit
	@DEBUG_VALUE: Reverb:this <- %R4
	.loc	18 28 1 discriminator 19 @ /root/Bela/projects/vintage_effect/Reverb.cpp:28:1
	ldr	r0, [sp, #4]            @ 4-byte Reload
	bl	_ZN8HPFilterD1Ev
.Ltmp110:
.LBB0_41:
	@DEBUG_VALUE: Reverb:this <- %R4
	.loc	18 28 1 is_stmt 0 discriminator 17 @ /root/Bela/projects/vintage_effect/Reverb.cpp:28:1
	mov	r0, r4
	bl	_ZN8LPFilterD1Ev
	ldr	r0, [sp]                @ 4-byte Reload
	mov	lr, pc
	b	_Unwind_Resume
.Ltmp111:
	.p2align	4
@ BB#42:
.LCPI0_5:
	.long	1194083328              @ float 44100
	.long	1017370378              @ float 0.0199999996
	.long	1056964608              @ float 0.5
	.long	0                       @ float 0
.LCPI0_0:
	.long	1060320051              @ float 0.699999988
.LCPI0_1:
	.long	1061544788              @ float 0.773000002
.LCPI0_2:
	.long	1062031327              @ float 0.801999986
.LCPI0_3:
	.long	1061209244              @ float 0.753000021
.LCPI0_4:
	.long	1061214277              @ float 0.753300011
.Lfunc_end0:
	.size	_ZN6ReverbC2Ev, .Lfunc_end0-_ZN6ReverbC2Ev
	.cfi_endproc
	.file	19 "/root/Bela/projects/vintage_effect" "LPFilter.h"
	.file	20 "/root/Bela/projects/vintage_effect" "Reverb.h"
	.file	21 "/root/Bela/projects/vintage_effect" "HPFilter.h"
	.file	22 "/root/Bela/projects/vintage_effect" "APFilter.h"
	.file	23 "/root/Bela/projects/vintage_effect" "CombFilter.h"
	.globl	__gxx_personality_v0
	.personality __gxx_personality_v0
	.handlerdata
	.p2align	2
GCC_except_table0:
.Lexception0:
	.byte	255                     @ @LPStart Encoding = omit
	.byte	0                       @ @TType Encoding = absptr
	.asciz	"\222\201\200"          @ @TType base offset
	.byte	3                       @ Call site Encoding = udata4
	.ascii	"\217\001"              @ Call site table length
	.long	.Lfunc_begin0-.Lfunc_begin0 @ >> Call Site 1 <<
	.long	.Ltmp0-.Lfunc_begin0    @   Call between .Lfunc_begin0 and .Ltmp0
	.long	0                       @     has no landing pad
	.byte	0                       @   On action: cleanup
	.long	.Ltmp0-.Lfunc_begin0    @ >> Call Site 2 <<
	.long	.Ltmp1-.Ltmp0           @   Call between .Ltmp0 and .Ltmp1
	.long	.Ltmp2-.Lfunc_begin0    @     jumps to .Ltmp2
	.byte	0                       @   On action: cleanup
	.long	.Ltmp3-.Lfunc_begin0    @ >> Call Site 3 <<
	.long	.Ltmp4-.Ltmp3           @   Call between .Ltmp3 and .Ltmp4
	.long	.Ltmp5-.Lfunc_begin0    @     jumps to .Ltmp5
	.byte	0                       @   On action: cleanup
	.long	.Ltmp6-.Lfunc_begin0    @ >> Call Site 4 <<
	.long	.Ltmp7-.Ltmp6           @   Call between .Ltmp6 and .Ltmp7
	.long	.Ltmp8-.Lfunc_begin0    @     jumps to .Ltmp8
	.byte	0                       @   On action: cleanup
	.long	.Ltmp9-.Lfunc_begin0    @ >> Call Site 5 <<
	.long	.Ltmp10-.Ltmp9          @   Call between .Ltmp9 and .Ltmp10
	.long	.Ltmp11-.Lfunc_begin0   @     jumps to .Ltmp11
	.byte	0                       @   On action: cleanup
	.long	.Ltmp12-.Lfunc_begin0   @ >> Call Site 6 <<
	.long	.Ltmp13-.Ltmp12         @   Call between .Ltmp12 and .Ltmp13
	.long	.Ltmp14-.Lfunc_begin0   @     jumps to .Ltmp14
	.byte	0                       @   On action: cleanup
	.long	.Ltmp15-.Lfunc_begin0   @ >> Call Site 7 <<
	.long	.Ltmp16-.Ltmp15         @   Call between .Ltmp15 and .Ltmp16
	.long	.Ltmp17-.Lfunc_begin0   @     jumps to .Ltmp17
	.byte	0                       @   On action: cleanup
	.long	.Ltmp18-.Lfunc_begin0   @ >> Call Site 8 <<
	.long	.Ltmp19-.Ltmp18         @   Call between .Ltmp18 and .Ltmp19
	.long	.Ltmp20-.Lfunc_begin0   @     jumps to .Ltmp20
	.byte	0                       @   On action: cleanup
	.long	.Ltmp21-.Lfunc_begin0   @ >> Call Site 9 <<
	.long	.Ltmp22-.Ltmp21         @   Call between .Ltmp21 and .Ltmp22
	.long	.Ltmp23-.Lfunc_begin0   @     jumps to .Ltmp23
	.byte	0                       @   On action: cleanup
	.long	.Ltmp24-.Lfunc_begin0   @ >> Call Site 10 <<
	.long	.Ltmp51-.Ltmp24         @   Call between .Ltmp24 and .Ltmp51
	.long	.Ltmp52-.Lfunc_begin0   @     jumps to .Ltmp52
	.byte	0                       @   On action: cleanup
	.long	.Ltmp51-.Lfunc_begin0   @ >> Call Site 11 <<
	.long	.Lfunc_end0-.Ltmp51     @   Call between .Ltmp51 and .Lfunc_end0
	.long	0                       @     has no landing pad
	.byte	0                       @   On action: cleanup
	.p2align	2
	.fnend

	.globl	_ZN6Reverb13setSampleRateEi
	.p2align	2
	.type	_ZN6Reverb13setSampleRateEi,%function
_ZN6Reverb13setSampleRateEi:            @ @_ZN6Reverb13setSampleRateEi
.Lfunc_begin1:
	.loc	18 31 0 is_stmt 1       @ /root/Bela/projects/vintage_effect/Reverb.cpp:31:0
	.fnstart
	.cfi_startproc
@ BB#0:
	.save	{r4, r5, r11, lr}
	push	{r4, r5, r11, lr}
.Ltmp112:
	.cfi_def_cfa_offset 16
.Ltmp113:
	.cfi_offset lr, -4
.Ltmp114:
	.cfi_offset r11, -8
.Ltmp115:
	.cfi_offset r5, -12
.Ltmp116:
	.cfi_offset r4, -16
	.setfp	r11, sp, #8
	add	r11, sp, #8
.Ltmp117:
	.cfi_def_cfa r11, 8
	@DEBUG_VALUE: setSampleRate:this <- %R0
	@DEBUG_VALUE: setSampleRate:rate <- %R1
	mov	r4, r0
.Ltmp118:
	@DEBUG_VALUE: setSampleRate:this <- %R4
	.loc	18 32 2 prologue_end    @ /root/Bela/projects/vintage_effect/Reverb.cpp:32:2
	add	r0, r4, #152
	mov	r5, r1
.Ltmp119:
	@DEBUG_VALUE: setSampleRate:rate <- %R5
	.loc	18 32 7 is_stmt 0       @ /root/Bela/projects/vintage_effect/Reverb.cpp:32:7
	bl	_ZN8APFilter13setSampleRateEi
	.loc	18 33 2 is_stmt 1       @ /root/Bela/projects/vintage_effect/Reverb.cpp:33:2
	add	r0, r4, #196
	.loc	18 33 7 is_stmt 0       @ /root/Bela/projects/vintage_effect/Reverb.cpp:33:7
	mov	r1, r5
	bl	_ZN8APFilter13setSampleRateEi
	.loc	18 34 2 is_stmt 1       @ /root/Bela/projects/vintage_effect/Reverb.cpp:34:2
	add	r0, r4, #240
	.loc	18 34 7 is_stmt 0       @ /root/Bela/projects/vintage_effect/Reverb.cpp:34:7
	mov	r1, r5
	bl	_ZN8APFilter13setSampleRateEi
	.loc	18 36 2 is_stmt 1       @ /root/Bela/projects/vintage_effect/Reverb.cpp:36:2
	add	r0, r4, #284
	.loc	18 36 7 is_stmt 0       @ /root/Bela/projects/vintage_effect/Reverb.cpp:36:7
	mov	r1, r5
	bl	_ZN10CombFilter13setSampleRateEi
	.loc	18 37 2 is_stmt 1       @ /root/Bela/projects/vintage_effect/Reverb.cpp:37:2
	add	r0, r4, #328
	.loc	18 37 7 is_stmt 0       @ /root/Bela/projects/vintage_effect/Reverb.cpp:37:7
	mov	r1, r5
	bl	_ZN10CombFilter13setSampleRateEi
	.loc	18 38 2 is_stmt 1       @ /root/Bela/projects/vintage_effect/Reverb.cpp:38:2
	add	r0, r4, #372
	.loc	18 38 7 is_stmt 0       @ /root/Bela/projects/vintage_effect/Reverb.cpp:38:7
	mov	r1, r5
	bl	_ZN10CombFilter13setSampleRateEi
	.loc	18 39 2 is_stmt 1       @ /root/Bela/projects/vintage_effect/Reverb.cpp:39:2
	add	r0, r4, #416
	.loc	18 39 7 is_stmt 0       @ /root/Bela/projects/vintage_effect/Reverb.cpp:39:7
	mov	r1, r5
	bl	_ZN10CombFilter13setSampleRateEi
	.loc	18 41 6 is_stmt 1       @ /root/Bela/projects/vintage_effect/Reverb.cpp:41:6
	mov	r0, r4
	mov	r1, r5
	bl	_ZN8LPFilter13setSampleRateEi
	.loc	18 42 2                 @ /root/Bela/projects/vintage_effect/Reverb.cpp:42:2
	add	r0, r4, #52
	.loc	18 42 6 is_stmt 0       @ /root/Bela/projects/vintage_effect/Reverb.cpp:42:6
	mov	r1, r5
	bl	_ZN8HPFilter13setSampleRateEi
	.loc	18 43 16 is_stmt 1      @ /root/Bela/projects/vintage_effect/Reverb.cpp:43:16
	vmov	s0, r5
.Ltmp120:
	@DEBUG_VALUE: setSampleRate:rate <- %S0
	vcvt.f32.s32	d0, d0
.Ltmp121:
	.loc	18 43 14 is_stmt 0      @ /root/Bela/projects/vintage_effect/Reverb.cpp:43:14
	vstr	s0, [r4, #112]
	.loc	18 45 1 is_stmt 1       @ /root/Bela/projects/vintage_effect/Reverb.cpp:45:1
	pop	{r4, r5, r11, pc}
.Ltmp122:
.Lfunc_end1:
	.size	_ZN6Reverb13setSampleRateEi, .Lfunc_end1-_ZN6Reverb13setSampleRateEi
	.cfi_endproc
	.fnend

	.globl	_ZN6Reverb10setHighCutEf
	.p2align	2
	.type	_ZN6Reverb10setHighCutEf,%function
_ZN6Reverb10setHighCutEf:               @ @_ZN6Reverb10setHighCutEf
.Lfunc_begin2:
	.loc	18 48 0                 @ /root/Bela/projects/vintage_effect/Reverb.cpp:48:0
	.fnstart
	.cfi_startproc
@ BB#0:
	@DEBUG_VALUE: setHighCut:this <- %R0
	@DEBUG_VALUE: setHighCut:high <- %S0
	.loc	18 49 11 prologue_end   @ /root/Bela/projects/vintage_effect/Reverb.cpp:49:11
	vstr	s0, [r0, #104]
	.loc	18 50 1                 @ /root/Bela/projects/vintage_effect/Reverb.cpp:50:1
	bx	lr
.Ltmp123:
.Lfunc_end2:
	.size	_ZN6Reverb10setHighCutEf, .Lfunc_end2-_ZN6Reverb10setHighCutEf
	.cfi_endproc
	.fnend

	.globl	_ZN6Reverb9setLowCutEf
	.p2align	2
	.type	_ZN6Reverb9setLowCutEf,%function
_ZN6Reverb9setLowCutEf:                 @ @_ZN6Reverb9setLowCutEf
.Lfunc_begin3:
	.loc	18 52 0                 @ /root/Bela/projects/vintage_effect/Reverb.cpp:52:0
	.fnstart
	.cfi_startproc
@ BB#0:
	@DEBUG_VALUE: setLowCut:this <- %R0
	@DEBUG_VALUE: setLowCut:low <- %S0
	.loc	18 53 10 prologue_end   @ /root/Bela/projects/vintage_effect/Reverb.cpp:53:10
	vstr	s0, [r0, #108]
	.loc	18 54 1                 @ /root/Bela/projects/vintage_effect/Reverb.cpp:54:1
	bx	lr
.Ltmp124:
.Lfunc_end3:
	.size	_ZN6Reverb9setLowCutEf, .Lfunc_end3-_ZN6Reverb9setLowCutEf
	.cfi_endproc
	.fnend

	.globl	_ZN6Reverb8setRatioEf
	.p2align	2
	.type	_ZN6Reverb8setRatioEf,%function
_ZN6Reverb8setRatioEf:                  @ @_ZN6Reverb8setRatioEf
.Lfunc_begin4:
	.loc	18 57 0                 @ /root/Bela/projects/vintage_effect/Reverb.cpp:57:0
	.fnstart
	.cfi_startproc
@ BB#0:
	@DEBUG_VALUE: setRatio:this <- %R0
	@DEBUG_VALUE: setRatio:ratio <- %S0
	.loc	18 59 10 prologue_end   @ /root/Bela/projects/vintage_effect/Reverb.cpp:59:10
	vmov.f32	d16, #1.000000e+00
                                        @ kill: %S0<def> %S0<kill> %D0<def>
.Ltmp125:
	@DEBUG_VALUE: setRatio:ratio <- 1.000000e+00
	.loc	18 59 5 is_stmt 0       @ /root/Bela/projects/vintage_effect/Reverb.cpp:59:5
	vmin.f32	d0, d0, d16
	.loc	18 61 9 is_stmt 1       @ /root/Bela/projects/vintage_effect/Reverb.cpp:61:9
	vstr	s0, [r0, #124]
	.loc	18 62 1                 @ /root/Bela/projects/vintage_effect/Reverb.cpp:62:1
	bx	lr
.Ltmp126:
.Lfunc_end4:
	.size	_ZN6Reverb8setRatioEf, .Lfunc_end4-_ZN6Reverb8setRatioEf
	.cfi_endproc
	.fnend

	.globl	_ZN6Reverb11setPreDelayEf
	.p2align	2
	.type	_ZN6Reverb11setPreDelayEf,%function
_ZN6Reverb11setPreDelayEf:              @ @_ZN6Reverb11setPreDelayEf
.Lfunc_begin5:
	.loc	18 68 0                 @ /root/Bela/projects/vintage_effect/Reverb.cpp:68:0
	.fnstart
	.cfi_startproc
@ BB#0:
	.save	{r4, r10, r11, lr}
	push	{r4, r10, r11, lr}
.Ltmp127:
	.cfi_def_cfa_offset 16
.Ltmp128:
	.cfi_offset lr, -4
.Ltmp129:
	.cfi_offset r11, -8
.Ltmp130:
	.cfi_offset r10, -12
.Ltmp131:
	.cfi_offset r4, -16
	.setfp	r11, sp, #8
	add	r11, sp, #8
.Ltmp132:
	.cfi_def_cfa r11, 8
	.pad	#8
	sub	sp, sp, #8
	@DEBUG_VALUE: setPreDelay:this <- %R0
	@DEBUG_VALUE: setPreDelay:preDelay <- %S0
.Ltmp133:
	.loc	18 69 22 prologue_end   @ /root/Bela/projects/vintage_effect/Reverb.cpp:69:22
	vldr	s2, .LCPI5_0
                                        @ kill: %S0<def> %S0<kill> %D0<def>
.Ltmp134:
	mov	r1, #0
.Ltmp135:
	.loc	8 656 66                @ /usr/bin/../lib/gcc/arm-linux-gnueabihf/6.3.0/../../../../include/c++/6.3.0/bits/stl_vector.h:656:66
	mov	r12, r0
.Ltmp136:
	.loc	18 69 22                @ /root/Bela/projects/vintage_effect/Reverb.cpp:69:22
	vmul.f32	d0, d0, d1
	.loc	18 69 12 is_stmt 0      @ /root/Bela/projects/vintage_effect/Reverb.cpp:69:12
	vstr	s0, [r0, #116]
	.loc	18 70 24 is_stmt 1      @ /root/Bela/projects/vintage_effect/Reverb.cpp:70:24
	vldr	s2, [r0, #112]
	.loc	18 70 36 is_stmt 0      @ /root/Bela/projects/vintage_effect/Reverb.cpp:70:36
	vmul.f32	d16, d1, d0
	.loc	18 70 23                @ /root/Bela/projects/vintage_effect/Reverb.cpp:70:23
	vcvt.s32.f32	d0, d16
	vmov	r2, s0
.Ltmp137:
	@DEBUG_VALUE: resize:__new_size <- %R2
	.loc	18 70 16                @ /root/Bela/projects/vintage_effect/Reverb.cpp:70:16
	str	r2, [r0, #140]
	.loc	18 71 34 is_stmt 1      @ /root/Bela/projects/vintage_effect/Reverb.cpp:71:34
	str	r1, [sp, #4]
.Ltmp138:
	.loc	8 656 66                @ /usr/bin/../lib/gcc/arm-linux-gnueabihf/6.3.0/../../../../include/c++/6.3.0/bits/stl_vector.h:656:66
	ldr	lr, [r12, #128]!
	.loc	8 656 40 is_stmt 0      @ /usr/bin/../lib/gcc/arm-linux-gnueabihf/6.3.0/../../../../include/c++/6.3.0/bits/stl_vector.h:656:40
	ldr	r1, [r12, #4]
	.loc	8 656 50                @ /usr/bin/../lib/gcc/arm-linux-gnueabihf/6.3.0/../../../../include/c++/6.3.0/bits/stl_vector.h:656:50
	sub	r4, r1, lr
	asr	r3, r4, #2
.Ltmp139:
	.loc	8 696 6 is_stmt 1       @ /usr/bin/../lib/gcc/arm-linux-gnueabihf/6.3.0/../../../../include/c++/6.3.0/bits/stl_vector.h:696:6
	cmp	r2, r4, asr #2
.Ltmp140:
	@DEBUG_VALUE: resize:this <- %R12
	@DEBUG_VALUE: size:this <- %R12
	@DEBUG_VALUE: size:this <- %R12
	@DEBUG_VALUE: insert:this <- %R12
	@DEBUG_VALUE: _M_erase_at_end:this <- %R12
	bls	.LBB5_2
.Ltmp141:
@ BB#1:
	@DEBUG_VALUE: _M_erase_at_end:this <- %R12
	@DEBUG_VALUE: insert:this <- %R12
	@DEBUG_VALUE: size:this <- %R12
	@DEBUG_VALUE: size:this <- %R12
	@DEBUG_VALUE: resize:this <- %R12
	@DEBUG_VALUE: resize:__new_size <- %R2
	@DEBUG_VALUE: setPreDelay:this <- %R0
	.loc	8 697 29                @ /usr/bin/../lib/gcc/arm-linux-gnueabihf/6.3.0/../../../../include/c++/6.3.0/bits/stl_vector.h:697:29
	sub	r2, r2, r3
.Ltmp142:
	@DEBUG_VALUE: insert:__n <- %R2
	add	r3, sp, #4
.Ltmp143:
	@DEBUG_VALUE: insert:__x <- %R3
	.loc	8 1055 2 discriminator 2 @ /usr/bin/../lib/gcc/arm-linux-gnueabihf/6.3.0/../../../../include/c++/6.3.0/bits/stl_vector.h:1055:2
	mov	r0, r12
.Ltmp144:
	bl	_ZNSt6vectorIfSaIfEE14_M_fill_insertEN9__gnu_cxx17__normal_iteratorIPfS1_EEjRKf
.Ltmp145:
	.loc	18 72 1                 @ /root/Bela/projects/vintage_effect/Reverb.cpp:72:1
	sub	sp, r11, #8
	pop	{r4, r10, r11, pc}
.LBB5_2:
.Ltmp146:
	@DEBUG_VALUE: _M_erase_at_end:this <- %R12
	@DEBUG_VALUE: insert:this <- %R12
	@DEBUG_VALUE: size:this <- %R12
	@DEBUG_VALUE: size:this <- %R12
	@DEBUG_VALUE: resize:this <- %R12
	@DEBUG_VALUE: resize:__new_size <- %R2
	@DEBUG_VALUE: setPreDelay:this <- %R0
	.loc	8 698 11                @ /usr/bin/../lib/gcc/arm-linux-gnueabihf/6.3.0/../../../../include/c++/6.3.0/bits/stl_vector.h:698:11
	cmp	r2, r3
.Ltmp147:
	.loc	8 699 43                @ /usr/bin/../lib/gcc/arm-linux-gnueabihf/6.3.0/../../../../include/c++/6.3.0/bits/stl_vector.h:699:43
	addlo	r1, lr, r2, lsl #2
.Ltmp148:
	@DEBUG_VALUE: _M_erase_at_end:__pos <- %R1
	.loc	8 1437 26               @ /usr/bin/../lib/gcc/arm-linux-gnueabihf/6.3.0/../../../../include/c++/6.3.0/bits/stl_vector.h:1437:26
	strlo	r1, [r0, #132]
.Ltmp149:
	.loc	18 72 1                 @ /root/Bela/projects/vintage_effect/Reverb.cpp:72:1
	sub	sp, r11, #8
	pop	{r4, r10, r11, pc}
.Ltmp150:
	.p2align	2
@ BB#3:
.LCPI5_0:
	.long	981668463               @ float 0.00100000005
.Lfunc_end5:
	.size	_ZN6Reverb11setPreDelayEf, .Lfunc_end5-_ZN6Reverb11setPreDelayEf
	.cfi_endproc
	.fnend

	.globl	_ZN6Reverb11setFeedbackEf
	.p2align	2
	.type	_ZN6Reverb11setFeedbackEf,%function
_ZN6Reverb11setFeedbackEf:              @ @_ZN6Reverb11setFeedbackEf
.Lfunc_begin6:
	.loc	18 75 0                 @ /root/Bela/projects/vintage_effect/Reverb.cpp:75:0
	.fnstart
	.cfi_startproc
@ BB#0:
	@DEBUG_VALUE: setFeedback:this <- %R0
	@DEBUG_VALUE: setFeedback:feedback <- %S0
	.loc	18 76 12 prologue_end   @ /root/Bela/projects/vintage_effect/Reverb.cpp:76:12
	vstr	s0, [r0, #120]
	.loc	18 77 1                 @ /root/Bela/projects/vintage_effect/Reverb.cpp:77:1
	bx	lr
.Ltmp151:
.Lfunc_end6:
	.size	_ZN6Reverb11setFeedbackEf, .Lfunc_end6-_ZN6Reverb11setFeedbackEf
	.cfi_endproc
	.fnend

	.globl	_ZN6Reverb7processEf
	.p2align	2
	.type	_ZN6Reverb7processEf,%function
_ZN6Reverb7processEf:                   @ @_ZN6Reverb7processEf
.Lfunc_begin7:
	.loc	18 80 0                 @ /root/Bela/projects/vintage_effect/Reverb.cpp:80:0
	.fnstart
	.cfi_startproc
@ BB#0:
	.save	{r4, r5, r6, r10, r11, lr}
	push	{r4, r5, r6, r10, r11, lr}
.Ltmp152:
	.cfi_def_cfa_offset 24
.Ltmp153:
	.cfi_offset lr, -4
.Ltmp154:
	.cfi_offset r11, -8
.Ltmp155:
	.cfi_offset r10, -12
.Ltmp156:
	.cfi_offset r6, -16
.Ltmp157:
	.cfi_offset r5, -20
.Ltmp158:
	.cfi_offset r4, -24
	.setfp	r11, sp, #16
	add	r11, sp, #16
.Ltmp159:
	.cfi_def_cfa r11, 8
	.vsave	{d8, d9, d10, d11, d12, d13, d14}
	vpush	{d8, d9, d10, d11, d12, d13, d14}
.Ltmp160:
	.cfi_offset d14, -32
.Ltmp161:
	.cfi_offset d13, -40
.Ltmp162:
	.cfi_offset d12, -48
.Ltmp163:
	.cfi_offset d11, -56
.Ltmp164:
	.cfi_offset d10, -64
.Ltmp165:
	.cfi_offset d9, -72
.Ltmp166:
	.cfi_offset d8, -80
	@DEBUG_VALUE: process:this <- %R0
	@DEBUG_VALUE: process:in <- %S0
	mov	r4, r0
.Ltmp167:
	@DEBUG_VALUE: process:out <- 0.000000e+00
	@DEBUG_VALUE: process:this <- %R4
	vorr	d8, d0, d0
.Ltmp168:
	@DEBUG_VALUE: process:in <- %S16
	.loc	18 86 27 prologue_end   @ /root/Bela/projects/vintage_effect/Reverb.cpp:86:27
	vldr	s0, [r4, #120]
	.loc	18 86 26 is_stmt 0      @ /root/Bela/projects/vintage_effect/Reverb.cpp:86:26
	vmov.f64	d14, #1.000000e+00
	.loc	18 84 18 is_stmt 1      @ /root/Bela/projects/vintage_effect/Reverb.cpp:84:18
	ldr	r0, [r4, #144]
.Ltmp169:
	@DEBUG_VALUE: operator[]:__n <- %R0
	@DEBUG_VALUE: operator[]:__n <- %R0
	.loc	8 781 32                @ /usr/bin/../lib/gcc/arm-linux-gnueabihf/6.3.0/../../../../include/c++/6.3.0/bits/stl_vector.h:781:32
	ldr	r1, [r4, #128]
.Ltmp170:
	.loc	18 88 12                @ /root/Bela/projects/vintage_effect/Reverb.cpp:88:12
	ldr	r6, [r4, #148]
.Ltmp171:
	@DEBUG_VALUE: operator[]:__n <- %R6
	.loc	8 781 41                @ /usr/bin/../lib/gcc/arm-linux-gnueabihf/6.3.0/../../../../include/c++/6.3.0/bits/stl_vector.h:781:41
	add	r2, r1, r0, lsl #2
.Ltmp172:
	.loc	18 90 25                @ /root/Bela/projects/vintage_effect/Reverb.cpp:90:25
	add	r0, r0, #1
.Ltmp173:
	.loc	18 86 27                @ /root/Bela/projects/vintage_effect/Reverb.cpp:86:27
	vcvt.f64.f32	d16, s0
	.loc	18 86 26 is_stmt 0      @ /root/Bela/projects/vintage_effect/Reverb.cpp:86:26
	vsub.f64	d16, d14, d16
	.loc	18 84 8 is_stmt 1       @ /root/Bela/projects/vintage_effect/Reverb.cpp:84:8
	vldr	s18, [r2]
.Ltmp174:
	@DEBUG_VALUE: process:out <- %S18
	.loc	18 86 71                @ /root/Bela/projects/vintage_effect/Reverb.cpp:86:71
	vmul.f32	d0, d0, d8
.Ltmp175:
	.loc	8 781 41                @ /usr/bin/../lib/gcc/arm-linux-gnueabihf/6.3.0/../../../../include/c++/6.3.0/bits/stl_vector.h:781:41
	add	r2, r1, r6, lsl #2
.Ltmp176:
	.loc	18 86 38                @ /root/Bela/projects/vintage_effect/Reverb.cpp:86:38
	vcvt.f64.f32	d17, s18
	.loc	18 86 37 is_stmt 0      @ /root/Bela/projects/vintage_effect/Reverb.cpp:86:37
	vmul.f64	d16, d16, d17
	.loc	18 86 61                @ /root/Bela/projects/vintage_effect/Reverb.cpp:86:61
	vcvt.f64.f32	d17, s0
	.loc	18 86 59                @ /root/Bela/projects/vintage_effect/Reverb.cpp:86:59
	vadd.f64	d16, d16, d17
	.loc	18 86 22                @ /root/Bela/projects/vintage_effect/Reverb.cpp:86:22
	vcvt.f32.f64	s0, d16
.Ltmp177:
	@DEBUG_VALUE: process:delaySample <- %S0
	.loc	18 88 24 is_stmt 1      @ /root/Bela/projects/vintage_effect/Reverb.cpp:88:24
	vstr	s0, [r2]
.Ltmp178:
	.loc	8 656 40                @ /usr/bin/../lib/gcc/arm-linux-gnueabihf/6.3.0/../../../../include/c++/6.3.0/bits/stl_vector.h:656:40
	ldr	r2, [r4, #132]
	.loc	8 656 50 is_stmt 0      @ /usr/bin/../lib/gcc/arm-linux-gnueabihf/6.3.0/../../../../include/c++/6.3.0/bits/stl_vector.h:656:50
	sub	r1, r2, r1
	asr	r5, r1, #2
.Ltmp179:
	.loc	18 90 30 is_stmt 1      @ /root/Bela/projects/vintage_effect/Reverb.cpp:90:30
	mov	r1, r5
	bl	__aeabi_uidivmod
.Ltmp180:
	.loc	18 91 30                @ /root/Bela/projects/vintage_effect/Reverb.cpp:91:30
	add	r0, r6, #1
	.loc	18 90 12                @ /root/Bela/projects/vintage_effect/Reverb.cpp:90:12
	str	r1, [r4, #144]
	.loc	18 91 35                @ /root/Bela/projects/vintage_effect/Reverb.cpp:91:35
	mov	r1, r5
	bl	__aeabi_uidivmod
	.loc	18 94 13                @ /root/Bela/projects/vintage_effect/Reverb.cpp:94:13
	vmov.f32	s0, s18
	.loc	18 94 8 is_stmt 0       @ /root/Bela/projects/vintage_effect/Reverb.cpp:94:8
	add	r0, r4, #152
	.loc	18 91 16 is_stmt 1      @ /root/Bela/projects/vintage_effect/Reverb.cpp:91:16
	str	r1, [r4, #148]
	.loc	18 94 13                @ /root/Bela/projects/vintage_effect/Reverb.cpp:94:13
	bl	_ZN8APFilter17getFilteredSampleEf
.Ltmp181:
	@DEBUG_VALUE: process:out <- %S0
	.loc	18 95 8                 @ /root/Bela/projects/vintage_effect/Reverb.cpp:95:8
	add	r0, r4, #196
	.loc	18 95 13 is_stmt 0      @ /root/Bela/projects/vintage_effect/Reverb.cpp:95:13
	bl	_ZN8APFilter17getFilteredSampleEf
.Ltmp182:
	@DEBUG_VALUE: process:out <- %S0
	.loc	18 96 8 is_stmt 1       @ /root/Bela/projects/vintage_effect/Reverb.cpp:96:8
	add	r0, r4, #240
	.loc	18 96 13 is_stmt 0      @ /root/Bela/projects/vintage_effect/Reverb.cpp:96:13
	bl	_ZN8APFilter17getFilteredSampleEf
.Ltmp183:
	.loc	18 99 13 is_stmt 1      @ /root/Bela/projects/vintage_effect/Reverb.cpp:99:13
	add	r0, r4, #284
	.loc	18 96 13                @ /root/Bela/projects/vintage_effect/Reverb.cpp:96:13
	vmov.f32	s26, s0
.Ltmp184:
	@DEBUG_VALUE: process:out <- %S26
	.loc	18 99 18                @ /root/Bela/projects/vintage_effect/Reverb.cpp:99:18
	bl	_ZN10CombFilter17getFilteredSampleEf
	vmov.f64	d9, d0
.Ltmp185:
	@DEBUG_VALUE: process:combOut0 <- %S18
	.loc	18 100 13               @ /root/Bela/projects/vintage_effect/Reverb.cpp:100:13
	add	r0, r4, #328
	.loc	18 100 18 is_stmt 0     @ /root/Bela/projects/vintage_effect/Reverb.cpp:100:18
	vmov.f32	s0, s26
	bl	_ZN10CombFilter17getFilteredSampleEf
	vmov.f64	d10, d0
.Ltmp186:
	@DEBUG_VALUE: process:combOut1 <- %S20
	.loc	18 101 13 is_stmt 1     @ /root/Bela/projects/vintage_effect/Reverb.cpp:101:13
	add	r0, r4, #372
	.loc	18 101 18 is_stmt 0     @ /root/Bela/projects/vintage_effect/Reverb.cpp:101:18
	vmov.f32	s0, s26
	bl	_ZN10CombFilter17getFilteredSampleEf
	vmov.f64	d11, d0
.Ltmp187:
	@DEBUG_VALUE: process:combOut2 <- %S22
	.loc	18 102 13 is_stmt 1     @ /root/Bela/projects/vintage_effect/Reverb.cpp:102:13
	add	r0, r4, #416
	.loc	18 102 18 is_stmt 0     @ /root/Bela/projects/vintage_effect/Reverb.cpp:102:18
	vmov.f32	s0, s26
	bl	_ZN10CombFilter17getFilteredSampleEf
	vmov.f64	d12, d0
.Ltmp188:
	@DEBUG_VALUE: process:combOut3 <- %S24
	.loc	18 104 12 is_stmt 1     @ /root/Bela/projects/vintage_effect/Reverb.cpp:104:12
	mov	r0, r4
	vmov.f32	s0, s26
	.loc	18 104 34 is_stmt 0     @ /root/Bela/projects/vintage_effect/Reverb.cpp:104:34
	vldr	s1, [r4, #104]
	.loc	18 104 12               @ /root/Bela/projects/vintage_effect/Reverb.cpp:104:12
	bl	_ZN8LPFilter17getFilteredSampleEff
.Ltmp189:
	@DEBUG_VALUE: process:out <- %S0
	.loc	18 105 34 is_stmt 1     @ /root/Bela/projects/vintage_effect/Reverb.cpp:105:34
	vldr	s1, [r4, #108]
	.loc	18 105 8 is_stmt 0      @ /root/Bela/projects/vintage_effect/Reverb.cpp:105:8
	add	r0, r4, #52
	.loc	18 105 12               @ /root/Bela/projects/vintage_effect/Reverb.cpp:105:12
	bl	_ZN8HPFilter17getFilteredSampleEff
.Ltmp190:
	.loc	18 107 13 is_stmt 1     @ /root/Bela/projects/vintage_effect/Reverb.cpp:107:13
	vldr	s0, [r4, #124]
	.loc	18 107 23 is_stmt 0     @ /root/Bela/projects/vintage_effect/Reverb.cpp:107:23
	vcvt.f64.f32	d17, s16
	.loc	18 107 13               @ /root/Bela/projects/vintage_effect/Reverb.cpp:107:13
	vcvt.f64.f32	d16, s0
	.loc	18 107 12               @ /root/Bela/projects/vintage_effect/Reverb.cpp:107:12
	vsub.f64	d16, d14, d16
	.loc	18 107 21               @ /root/Bela/projects/vintage_effect/Reverb.cpp:107:21
	vmul.f64	d16, d16, d17
	.loc	18 107 47               @ /root/Bela/projects/vintage_effect/Reverb.cpp:107:47
	vadd.f32	d17, d10, d9
	.loc	18 107 58               @ /root/Bela/projects/vintage_effect/Reverb.cpp:107:58
	vadd.f32	d17, d17, d11
	.loc	18 107 69               @ /root/Bela/projects/vintage_effect/Reverb.cpp:107:69
	vadd.f32	d17, d17, d12
	.loc	18 107 35               @ /root/Bela/projects/vintage_effect/Reverb.cpp:107:35
	vmul.f32	d0, d0, d17
	.loc	18 107 28               @ /root/Bela/projects/vintage_effect/Reverb.cpp:107:28
	vcvt.f64.f32	d17, s0
	.loc	18 107 26               @ /root/Bela/projects/vintage_effect/Reverb.cpp:107:26
	vadd.f64	d16, d16, d17
	.loc	18 107 8                @ /root/Bela/projects/vintage_effect/Reverb.cpp:107:8
	vcvt.f32.f64	s0, d16
.Ltmp191:
	@DEBUG_VALUE: process:out <- %S0
	.loc	18 109 2 is_stmt 1      @ /root/Bela/projects/vintage_effect/Reverb.cpp:109:2
	vpop	{d8, d9, d10, d11, d12, d13, d14}
.Ltmp192:
	pop	{r4, r5, r6, r10, r11, pc}
.Ltmp193:
.Lfunc_end7:
	.size	_ZN6Reverb7processEf, .Lfunc_end7-_ZN6Reverb7processEf
	.cfi_endproc
	.fnend

	.globl	_ZN6ReverbD2Ev
	.p2align	2
	.type	_ZN6ReverbD2Ev,%function
_ZN6ReverbD2Ev:                         @ @_ZN6ReverbD2Ev
.Lfunc_begin8:
	.loc	18 113 0                @ /root/Bela/projects/vintage_effect/Reverb.cpp:113:0
	.fnstart
	.cfi_startproc
@ BB#0:
	.save	{r4, r10, r11, lr}
	push	{r4, r10, r11, lr}
.Ltmp194:
	.cfi_def_cfa_offset 16
.Ltmp195:
	.cfi_offset lr, -4
.Ltmp196:
	.cfi_offset r11, -8
.Ltmp197:
	.cfi_offset r10, -12
.Ltmp198:
	.cfi_offset r4, -16
	.setfp	r11, sp, #8
	add	r11, sp, #8
.Ltmp199:
	.cfi_def_cfa r11, 8
	@DEBUG_VALUE: ~Reverb:this <- %R0
	mov	r4, r0
.Ltmp200:
	@DEBUG_VALUE: ~Reverb:this <- %R4
	.loc	18 115 1 prologue_end   @ /root/Bela/projects/vintage_effect/Reverb.cpp:115:1
	add	r0, r4, #416
	bl	_ZN10CombFilterD1Ev
	add	r0, r4, #372
	.loc	18 115 1 is_stmt 0 discriminator 1 @ /root/Bela/projects/vintage_effect/Reverb.cpp:115:1
	bl	_ZN10CombFilterD1Ev
	.loc	18 115 1                @ /root/Bela/projects/vintage_effect/Reverb.cpp:115:1
	add	r0, r4, #328
	.loc	18 115 1 discriminator 2 @ /root/Bela/projects/vintage_effect/Reverb.cpp:115:1
	bl	_ZN10CombFilterD1Ev
	.loc	18 115 1                @ /root/Bela/projects/vintage_effect/Reverb.cpp:115:1
	add	r0, r4, #284
	.loc	18 115 1 discriminator 3 @ /root/Bela/projects/vintage_effect/Reverb.cpp:115:1
	bl	_ZN10CombFilterD1Ev
	.loc	18 115 1                @ /root/Bela/projects/vintage_effect/Reverb.cpp:115:1
	add	r0, r4, #240
	.loc	18 115 1 discriminator 4 @ /root/Bela/projects/vintage_effect/Reverb.cpp:115:1
	bl	_ZN8APFilterD1Ev
	.loc	18 115 1                @ /root/Bela/projects/vintage_effect/Reverb.cpp:115:1
	add	r0, r4, #196
	.loc	18 115 1 discriminator 5 @ /root/Bela/projects/vintage_effect/Reverb.cpp:115:1
	bl	_ZN8APFilterD1Ev
	.loc	18 115 1                @ /root/Bela/projects/vintage_effect/Reverb.cpp:115:1
	add	r0, r4, #152
	.loc	18 115 1 discriminator 6 @ /root/Bela/projects/vintage_effect/Reverb.cpp:115:1
	bl	_ZN8APFilterD1Ev
.Ltmp201:
	.loc	8 160 37 is_stmt 1      @ /usr/bin/../lib/gcc/arm-linux-gnueabihf/6.3.0/../../../../include/c++/6.3.0/bits/stl_vector.h:160:37
	ldr	r0, [r4, #128]
.Ltmp202:
	@DEBUG_VALUE: _M_deallocate:__p <- %R0
	@DEBUG_VALUE: deallocate:__p <- %R0
	@DEBUG_VALUE: deallocate:__p <- %R0
	.loc	8 177 6                 @ /usr/bin/../lib/gcc/arm-linux-gnueabihf/6.3.0/../../../../include/c++/6.3.0/bits/stl_vector.h:177:6
	cmp	r0, #0
	beq	.LBB8_2
.Ltmp203:
@ BB#1:
	@DEBUG_VALUE: deallocate:__p <- %R0
	@DEBUG_VALUE: deallocate:__p <- %R0
	@DEBUG_VALUE: _M_deallocate:__p <- %R0
	@DEBUG_VALUE: ~Reverb:this <- %R4
	.loc	4 110 9                 @ /usr/bin/../lib/gcc/arm-linux-gnueabihf/6.3.0/../../../../include/c++/6.3.0/ext/new_allocator.h:110:9
	bl	_ZdlPv
.Ltmp204:
.LBB8_2:                                @ %_ZNSt6vectorIfSaIfEED2Ev.exit
	@DEBUG_VALUE: ~Reverb:this <- %R4
	.loc	18 115 1                @ /root/Bela/projects/vintage_effect/Reverb.cpp:115:1
	add	r0, r4, #52
	.loc	18 115 1 is_stmt 0 discriminator 8 @ /root/Bela/projects/vintage_effect/Reverb.cpp:115:1
	bl	_ZN8HPFilterD1Ev
	.loc	18 115 1 discriminator 9 @ /root/Bela/projects/vintage_effect/Reverb.cpp:115:1
	mov	r0, r4
	pop	{r4, r10, r11, lr}
.Ltmp205:
	b	_ZN8LPFilterD1Ev
.Ltmp206:
.Lfunc_end8:
	.size	_ZN6ReverbD2Ev, .Lfunc_end8-_ZN6ReverbD2Ev
	.cfi_endproc
	.fnend

	.section	.text._ZNSt6vectorIfSaIfEE14_M_fill_insertEN9__gnu_cxx17__normal_iteratorIPfS1_EEjRKf,"axG",%progbits,_ZNSt6vectorIfSaIfEE14_M_fill_insertEN9__gnu_cxx17__normal_iteratorIPfS1_EEjRKf,comdat
	.weak	_ZNSt6vectorIfSaIfEE14_M_fill_insertEN9__gnu_cxx17__normal_iteratorIPfS1_EEjRKf
	.p2align	2
	.type	_ZNSt6vectorIfSaIfEE14_M_fill_insertEN9__gnu_cxx17__normal_iteratorIPfS1_EEjRKf,%function
_ZNSt6vectorIfSaIfEE14_M_fill_insertEN9__gnu_cxx17__normal_iteratorIPfS1_EEjRKf: @ @_ZNSt6vectorIfSaIfEE14_M_fill_insertEN9__gnu_cxx17__normal_iteratorIPfS1_EEjRKf
.Lfunc_begin9:
	.file	24 "/usr/bin/../lib/gcc/arm-linux-gnueabihf/6.3.0/../../../../include/c++/6.3.0/bits" "vector.tcc"
	.loc	24 451 0 is_stmt 1      @ /usr/bin/../lib/gcc/arm-linux-gnueabihf/6.3.0/../../../../include/c++/6.3.0/bits/vector.tcc:451:0
	.fnstart
	.cfi_startproc
@ BB#0:
	.save	{r4, r5, r6, r7, r8, r9, r10, r11, lr}
	push	{r4, r5, r6, r7, r8, r9, r10, r11, lr}
.Ltmp207:
	.cfi_def_cfa_offset 36
.Ltmp208:
	.cfi_offset lr, -4
.Ltmp209:
	.cfi_offset r11, -8
.Ltmp210:
	.cfi_offset r10, -12
.Ltmp211:
	.cfi_offset r9, -16
.Ltmp212:
	.cfi_offset r8, -20
.Ltmp213:
	.cfi_offset r7, -24
.Ltmp214:
	.cfi_offset r6, -28
.Ltmp215:
	.cfi_offset r5, -32
.Ltmp216:
	.cfi_offset r4, -36
	.setfp	r11, sp, #28
	add	r11, sp, #28
.Ltmp217:
	.cfi_def_cfa r11, 8
	.pad	#4
	sub	sp, sp, #4
	@DEBUG_VALUE: _M_fill_insert:this <- %R0
	@DEBUG_VALUE: _M_fill_insert:__n <- %R2
	@DEBUG_VALUE: _M_fill_insert:__x <- %R3
	mov	r10, r2
.Ltmp218:
	@DEBUG_VALUE: _M_fill_insert:__n <- %R10
	mov	r8, r3
.Ltmp219:
	@DEBUG_VALUE: _M_fill_insert:__x <- %R8
	mov	r4, r1
	mov	r9, r0
.Ltmp220:
	@DEBUG_VALUE: _M_fill_insert:this <- %R9
	.loc	24 452 11 prologue_end  @ /usr/bin/../lib/gcc/arm-linux-gnueabihf/6.3.0/../../../../include/c++/6.3.0/bits/vector.tcc:452:11
	cmp	r10, #0
	beq	.LBB9_29
.Ltmp221:
@ BB#1:
	@DEBUG_VALUE: _M_fill_insert:this <- %R9
	@DEBUG_VALUE: _M_fill_insert:__x <- %R8
	@DEBUG_VALUE: _M_fill_insert:__n <- %R10
	.loc	24 455 20               @ /usr/bin/../lib/gcc/arm-linux-gnueabihf/6.3.0/../../../../include/c++/6.3.0/bits/vector.tcc:455:20
	ldr	r7, [r9, #4]
	.loc	24 454 32               @ /usr/bin/../lib/gcc/arm-linux-gnueabihf/6.3.0/../../../../include/c++/6.3.0/bits/vector.tcc:454:32
	ldr	r0, [r9, #8]
	.loc	24 455 4                @ /usr/bin/../lib/gcc/arm-linux-gnueabihf/6.3.0/../../../../include/c++/6.3.0/bits/vector.tcc:455:4
	sub	r0, r0, r7
	asr	r0, r0, #2
.Ltmp222:
	.loc	24 454 8                @ /usr/bin/../lib/gcc/arm-linux-gnueabihf/6.3.0/../../../../include/c++/6.3.0/bits/vector.tcc:454:8
	cmp	r0, r10
	bhs	.LBB9_15
.Ltmp223:
@ BB#2:
	@DEBUG_VALUE: _M_fill_insert:this <- %R9
	@DEBUG_VALUE: _M_fill_insert:__x <- %R8
	@DEBUG_VALUE: _M_fill_insert:__n <- %R10
	@DEBUG_VALUE: size:this <- %R9
	.loc	8 656 66                @ /usr/bin/../lib/gcc/arm-linux-gnueabihf/6.3.0/../../../../include/c++/6.3.0/bits/stl_vector.h:656:66
	ldr	r5, [r9]
.Ltmp224:
	.loc	8 1422 17               @ /usr/bin/../lib/gcc/arm-linux-gnueabihf/6.3.0/../../../../include/c++/6.3.0/bits/stl_vector.h:1422:17
	mvn	r6, #-1073741824
.Ltmp225:
	.loc	8 656 50                @ /usr/bin/../lib/gcc/arm-linux-gnueabihf/6.3.0/../../../../include/c++/6.3.0/bits/stl_vector.h:656:50
	sub	r0, r7, r5
.Ltmp226:
	.loc	8 1422 17               @ /usr/bin/../lib/gcc/arm-linux-gnueabihf/6.3.0/../../../../include/c++/6.3.0/bits/stl_vector.h:1422:17
	sub	r1, r6, r0, asr #2
.Ltmp227:
	@DEBUG_VALUE: _M_check_len:__n <- %R10
	.loc	8 1422 6 is_stmt 0      @ /usr/bin/../lib/gcc/arm-linux-gnueabihf/6.3.0/../../../../include/c++/6.3.0/bits/stl_vector.h:1422:6
	cmp	r1, r10
	blo	.LBB9_30
.Ltmp228:
@ BB#3:                                 @ %_ZNKSt6vectorIfSaIfEE12_M_check_lenEjPKc.exit
	@DEBUG_VALUE: _M_check_len:__n <- %R10
	@DEBUG_VALUE: size:this <- %R9
	@DEBUG_VALUE: _M_fill_insert:this <- %R9
	@DEBUG_VALUE: _M_fill_insert:__x <- %R8
	@DEBUG_VALUE: _M_fill_insert:__n <- %R10
	.loc	8 656 50 is_stmt 1      @ /usr/bin/../lib/gcc/arm-linux-gnueabihf/6.3.0/../../../../include/c++/6.3.0/bits/stl_vector.h:656:50
	asr	r0, r0, #2
.Ltmp229:
	.loc	8 1425 35               @ /usr/bin/../lib/gcc/arm-linux-gnueabihf/6.3.0/../../../../include/c++/6.3.0/bits/stl_vector.h:1425:35
	cmp	r0, r10
	mov	r1, r0
	mov	r7, #0
	movlo	r1, r10
	add	r0, r1, r0
	.loc	8 1426 25               @ /usr/bin/../lib/gcc/arm-linux-gnueabihf/6.3.0/../../../../include/c++/6.3.0/bits/stl_vector.h:1426:25
	cmp	r7, r0, lsr #30
	mov	r2, r0
	mvnne	r2, #-1073741824
	cmp	r0, r1
	movhs	r6, r2
.Ltmp230:
	@DEBUG_VALUE: __len <- %R6
	@DEBUG_VALUE: _M_allocate:__n <- %R6
	@DEBUG_VALUE: allocate:__n <- %R6
	@DEBUG_VALUE: allocate:__n <- %R6
	.loc	8 170 9                 @ /usr/bin/../lib/gcc/arm-linux-gnueabihf/6.3.0/../../../../include/c++/6.3.0/bits/stl_vector.h:170:9
	cmp	r6, #0
.Ltmp231:
	@DEBUG_VALUE: _M_check_len:__len <- %R0
	beq	.LBB9_6
.Ltmp232:
@ BB#4:
	@DEBUG_VALUE: _M_check_len:__len <- %R0
	@DEBUG_VALUE: allocate:__n <- %R6
	@DEBUG_VALUE: allocate:__n <- %R6
	@DEBUG_VALUE: _M_allocate:__n <- %R6
	@DEBUG_VALUE: __len <- %R6
	@DEBUG_VALUE: _M_check_len:__n <- %R10
	@DEBUG_VALUE: size:this <- %R9
	@DEBUG_VALUE: _M_fill_insert:this <- %R9
	@DEBUG_VALUE: _M_fill_insert:__x <- %R8
	@DEBUG_VALUE: _M_fill_insert:__n <- %R10
	.loc	4 101 6                 @ /usr/bin/../lib/gcc/arm-linux-gnueabihf/6.3.0/../../../../include/c++/6.3.0/ext/new_allocator.h:101:6
	cmp	r6, #1073741824
	bhs	.LBB9_31
.Ltmp233:
@ BB#5:                                 @ %_ZNSt16allocator_traitsISaIfEE8allocateERS0_j.exit.i
	@DEBUG_VALUE: _M_check_len:__len <- %R0
	@DEBUG_VALUE: allocate:__n <- %R6
	@DEBUG_VALUE: allocate:__n <- %R6
	@DEBUG_VALUE: _M_allocate:__n <- %R6
	@DEBUG_VALUE: __len <- %R6
	@DEBUG_VALUE: _M_check_len:__n <- %R10
	@DEBUG_VALUE: size:this <- %R9
	@DEBUG_VALUE: _M_fill_insert:this <- %R9
	@DEBUG_VALUE: _M_fill_insert:__x <- %R8
	@DEBUG_VALUE: _M_fill_insert:__n <- %R10
	.loc	4 104 46                @ /usr/bin/../lib/gcc/arm-linux-gnueabihf/6.3.0/../../../../include/c++/6.3.0/ext/new_allocator.h:104:46
	lsl	r0, r6, #2
.Ltmp234:
	.loc	4 104 27 is_stmt 0      @ /usr/bin/../lib/gcc/arm-linux-gnueabihf/6.3.0/../../../../include/c++/6.3.0/ext/new_allocator.h:104:27
	bl	_Znwj
	mov	r7, r0
.Ltmp235:
.LBB9_6:                                @ %_ZNSt12_Vector_baseIfSaIfEE11_M_allocateEj.exit
	@DEBUG_VALUE: allocate:__n <- %R6
	@DEBUG_VALUE: allocate:__n <- %R6
	@DEBUG_VALUE: _M_allocate:__n <- %R6
	@DEBUG_VALUE: __len <- %R6
	@DEBUG_VALUE: _M_check_len:__n <- %R10
	@DEBUG_VALUE: size:this <- %R9
	@DEBUG_VALUE: _M_fill_insert:this <- %R9
	@DEBUG_VALUE: _M_fill_insert:__x <- %R8
	@DEBUG_VALUE: _M_fill_insert:__n <- %R10
	str	r6, [sp]                @ 4-byte Spill
.Ltmp236:
	.loc	9 962 27 is_stmt 1      @ /usr/bin/../lib/gcc/arm-linux-gnueabihf/6.3.0/../../../../include/c++/6.3.0/bits/stl_iterator.h:962:27
	sub	r0, r4, r5
.Ltmp237:
	.file	25 "/usr/bin/../lib/gcc/arm-linux-gnueabihf/6.3.0/../../../../include/c++/6.3.0/bits" "stl_algobase.h"
	.loc	25 751 25               @ /usr/bin/../lib/gcc/arm-linux-gnueabihf/6.3.0/../../../../include/c++/6.3.0/bits/stl_algobase.h:751:25
	ldr	r1, [r8]
.Ltmp238:
	.loc	25 789 18 discriminator 1 @ /usr/bin/../lib/gcc/arm-linux-gnueabihf/6.3.0/../../../../include/c++/6.3.0/bits/stl_algobase.h:789:18
	mov	r2, r10
.Ltmp239:
	.loc	9 962 27                @ /usr/bin/../lib/gcc/arm-linux-gnueabihf/6.3.0/../../../../include/c++/6.3.0/bits/stl_iterator.h:962:27
	asr	r0, r0, #2
.Ltmp240:
	@DEBUG_VALUE: __fill_n_a<float *, unsigned int, float>:__value <- %R8
	@DEBUG_VALUE: uninitialized_fill_n<float *, unsigned int, float>:__assignable <- 1
	@DEBUG_VALUE: __elems_before <- %R0
.LBB9_7:                                @ %.lr.ph.i.i.i.i.i
                                        @ =>This Inner Loop Header: Depth=1
	.loc	25 754 11               @ /usr/bin/../lib/gcc/arm-linux-gnueabihf/6.3.0/../../../../include/c++/6.3.0/bits/stl_algobase.h:754:11
	str	r1, [r7, r0, lsl #2]
	.loc	25 753 13               @ /usr/bin/../lib/gcc/arm-linux-gnueabihf/6.3.0/../../../../include/c++/6.3.0/bits/stl_algobase.h:753:13
	add	r0, r0, #1
	.loc	25 753 18 is_stmt 0 discriminator 1 @ /usr/bin/../lib/gcc/arm-linux-gnueabihf/6.3.0/../../../../include/c++/6.3.0/bits/stl_algobase.h:753:18
	subs	r2, r2, #1
.Ltmp241:
	@DEBUG_VALUE: __new_start <- %R7
	@DEBUG_VALUE: __niter <- %R2
	.loc	25 752 7 is_stmt 1 discriminator 1 @ /usr/bin/../lib/gcc/arm-linux-gnueabihf/6.3.0/../../../../include/c++/6.3.0/bits/stl_algobase.h:752:7
	bne	.LBB9_7
.Ltmp242:
@ BB#8:                                 @ %_ZSt24__uninitialized_fill_n_aIPfjffET_S1_T0_RKT1_RSaIT2_E.exit
	@DEBUG_VALUE: __niter <- %R2
	@DEBUG_VALUE: __new_start <- %R7
	.loc	24 527 36               @ /usr/bin/../lib/gcc/arm-linux-gnueabihf/6.3.0/../../../../include/c++/6.3.0/bits/vector.tcc:527:36
	ldr	r5, [r9]
.Ltmp243:
	@DEBUG_VALUE: _M_deallocate:__p <- %R5
	@DEBUG_VALUE: size:this <- %R9
	@DEBUG_VALUE: deallocate:__p <- %R5
	@DEBUG_VALUE: deallocate:__p <- %R5
	mov	r8, #0
.Ltmp244:
	.loc	25 366 34               @ /usr/bin/../lib/gcc/arm-linux-gnueabihf/6.3.0/../../../../include/c++/6.3.0/bits/stl_algobase.h:366:34
	sub	r2, r4, r5
.Ltmp245:
	asr	r6, r2, #2
.Ltmp246:
	@DEBUG_VALUE: __copy_m<float>:_Num <- %R6
	.loc	25 367 8                @ /usr/bin/../lib/gcc/arm-linux-gnueabihf/6.3.0/../../../../include/c++/6.3.0/bits/stl_algobase.h:367:8
	cmp	r8, r2, asr #2
.Ltmp247:
	@DEBUG_VALUE: __copy_move_a<true, float *, float *>:__simple <- 1
	@DEBUG_VALUE: uninitialized_copy<std::move_iterator<float *>, float *>:__assignable <- 1
	@DEBUG_VALUE: move_iterator:__i <- %R5
	@DEBUG_VALUE: __make_move_if_noexcept_iterator<float, std::move_iterator<float *> >:__i <- %R5
	@DEBUG_VALUE: __uninitialized_move_if_noexcept_a<float *, float *, std::allocator<float> >:__first <- %R5
	beq	.LBB9_10
.Ltmp248:
@ BB#9:
	@DEBUG_VALUE: __uninitialized_move_if_noexcept_a<float *, float *, std::allocator<float> >:__first <- %R5
	@DEBUG_VALUE: __make_move_if_noexcept_iterator<float, std::move_iterator<float *> >:__i <- %R5
	@DEBUG_VALUE: move_iterator:__i <- %R5
	@DEBUG_VALUE: __copy_m<float>:_Num <- %R6
	@DEBUG_VALUE: deallocate:__p <- %R5
	@DEBUG_VALUE: deallocate:__p <- %R5
	@DEBUG_VALUE: size:this <- %R9
	@DEBUG_VALUE: _M_deallocate:__p <- %R5
	@DEBUG_VALUE: __new_start <- %R7
	.loc	25 368 6                @ /usr/bin/../lib/gcc/arm-linux-gnueabihf/6.3.0/../../../../include/c++/6.3.0/bits/stl_algobase.h:368:6
	mov	r0, r7
	mov	r1, r5
	bl	memmove
.Ltmp249:
.LBB9_10:
	@DEBUG_VALUE: __uninitialized_move_if_noexcept_a<float *, float *, std::allocator<float> >:__first <- %R5
	@DEBUG_VALUE: __make_move_if_noexcept_iterator<float, std::move_iterator<float *> >:__i <- %R5
	@DEBUG_VALUE: move_iterator:__i <- %R5
	@DEBUG_VALUE: __copy_m<float>:_Num <- %R6
	@DEBUG_VALUE: deallocate:__p <- %R5
	@DEBUG_VALUE: deallocate:__p <- %R5
	@DEBUG_VALUE: size:this <- %R9
	@DEBUG_VALUE: _M_deallocate:__p <- %R5
	@DEBUG_VALUE: __new_start <- %R7
	.loc	24 510 41               @ /usr/bin/../lib/gcc/arm-linux-gnueabihf/6.3.0/../../../../include/c++/6.3.0/bits/vector.tcc:510:41
	ldr	r1, [r9, #4]
.Ltmp250:
	.loc	25 369 20               @ /usr/bin/../lib/gcc/arm-linux-gnueabihf/6.3.0/../../../../include/c++/6.3.0/bits/stl_algobase.h:369:20
	add	r0, r7, r6, lsl #2
.Ltmp251:
	@DEBUG_VALUE: __new_finish <- %R0
	.loc	24 506 18               @ /usr/bin/../lib/gcc/arm-linux-gnueabihf/6.3.0/../../../../include/c++/6.3.0/bits/vector.tcc:506:18
	add	r6, r0, r10, lsl #2
.Ltmp252:
	@DEBUG_VALUE: __uninitialized_move_if_noexcept_a<float *, float *, std::allocator<float> >:__result <- %R6
	@DEBUG_VALUE: __uninitialized_copy_a<std::move_iterator<float *>, float *, float>:__result <- %R6
	@DEBUG_VALUE: uninitialized_copy<std::move_iterator<float *>, float *>:__result <- %R6
	@DEBUG_VALUE: __uninit_copy<std::move_iterator<float *>, float *>:__result <- %R6
	@DEBUG_VALUE: copy<std::move_iterator<float *>, float *>:__result <- %R6
	@DEBUG_VALUE: __copy_move_a2<true, float *, float *>:__result <- %R6
	@DEBUG_VALUE: __copy_move_a<true, float *, float *>:__result <- %R6
	@DEBUG_VALUE: __copy_m<float>:__result <- %R6
	@DEBUG_VALUE: __new_finish <- %R6
	@DEBUG_VALUE: __niter <- %R10
	.loc	25 366 34               @ /usr/bin/../lib/gcc/arm-linux-gnueabihf/6.3.0/../../../../include/c++/6.3.0/bits/stl_algobase.h:366:34
	sub	r2, r1, r4
	asr	r10, r2, #2
.Ltmp253:
	@DEBUG_VALUE: __copy_m<float>:_Num <- %R10
	.loc	25 367 8                @ /usr/bin/../lib/gcc/arm-linux-gnueabihf/6.3.0/../../../../include/c++/6.3.0/bits/stl_algobase.h:367:8
	cmp	r8, r2, asr #2
.Ltmp254:
	@DEBUG_VALUE: __copy_move_a<true, float *, float *>:__simple <- 1
	@DEBUG_VALUE: uninitialized_copy<std::move_iterator<float *>, float *>:__assignable <- 1
	beq	.LBB9_12
.Ltmp255:
@ BB#11:
	@DEBUG_VALUE: __copy_m<float>:_Num <- %R10
	@DEBUG_VALUE: __new_finish <- %R6
	@DEBUG_VALUE: __copy_m<float>:__result <- %R6
	@DEBUG_VALUE: __copy_move_a<true, float *, float *>:__result <- %R6
	@DEBUG_VALUE: __copy_move_a2<true, float *, float *>:__result <- %R6
	@DEBUG_VALUE: copy<std::move_iterator<float *>, float *>:__result <- %R6
	@DEBUG_VALUE: __uninit_copy<std::move_iterator<float *>, float *>:__result <- %R6
	@DEBUG_VALUE: uninitialized_copy<std::move_iterator<float *>, float *>:__result <- %R6
	@DEBUG_VALUE: __uninitialized_copy_a<std::move_iterator<float *>, float *, float>:__result <- %R6
	@DEBUG_VALUE: __uninitialized_move_if_noexcept_a<float *, float *, std::allocator<float> >:__result <- %R6
	@DEBUG_VALUE: __uninitialized_move_if_noexcept_a<float *, float *, std::allocator<float> >:__first <- %R5
	@DEBUG_VALUE: __make_move_if_noexcept_iterator<float, std::move_iterator<float *> >:__i <- %R5
	@DEBUG_VALUE: move_iterator:__i <- %R5
	@DEBUG_VALUE: deallocate:__p <- %R5
	@DEBUG_VALUE: deallocate:__p <- %R5
	@DEBUG_VALUE: size:this <- %R9
	@DEBUG_VALUE: _M_deallocate:__p <- %R5
	@DEBUG_VALUE: __new_start <- %R7
	.loc	25 368 6                @ /usr/bin/../lib/gcc/arm-linux-gnueabihf/6.3.0/../../../../include/c++/6.3.0/bits/stl_algobase.h:368:6
	mov	r0, r6
	mov	r1, r4
	bl	memmove
.Ltmp256:
.LBB9_12:
	@DEBUG_VALUE: __copy_m<float>:_Num <- %R10
	@DEBUG_VALUE: __new_finish <- %R6
	@DEBUG_VALUE: __copy_m<float>:__result <- %R6
	@DEBUG_VALUE: __copy_move_a<true, float *, float *>:__result <- %R6
	@DEBUG_VALUE: __copy_move_a2<true, float *, float *>:__result <- %R6
	@DEBUG_VALUE: copy<std::move_iterator<float *>, float *>:__result <- %R6
	@DEBUG_VALUE: __uninit_copy<std::move_iterator<float *>, float *>:__result <- %R6
	@DEBUG_VALUE: uninitialized_copy<std::move_iterator<float *>, float *>:__result <- %R6
	@DEBUG_VALUE: __uninitialized_copy_a<std::move_iterator<float *>, float *, float>:__result <- %R6
	@DEBUG_VALUE: __uninitialized_move_if_noexcept_a<float *, float *, std::allocator<float> >:__result <- %R6
	@DEBUG_VALUE: __uninitialized_move_if_noexcept_a<float *, float *, std::allocator<float> >:__first <- %R5
	@DEBUG_VALUE: __make_move_if_noexcept_iterator<float, std::move_iterator<float *> >:__i <- %R5
	@DEBUG_VALUE: move_iterator:__i <- %R5
	@DEBUG_VALUE: deallocate:__p <- %R5
	@DEBUG_VALUE: deallocate:__p <- %R5
	@DEBUG_VALUE: size:this <- %R9
	@DEBUG_VALUE: _M_deallocate:__p <- %R5
	@DEBUG_VALUE: __new_start <- %R7
	.loc	25 369 20               @ /usr/bin/../lib/gcc/arm-linux-gnueabihf/6.3.0/../../../../include/c++/6.3.0/bits/stl_algobase.h:369:20
	add	r4, r6, r10, lsl #2
.Ltmp257:
	@DEBUG_VALUE: __new_finish <- %R4
	.loc	8 177 6                 @ /usr/bin/../lib/gcc/arm-linux-gnueabihf/6.3.0/../../../../include/c++/6.3.0/bits/stl_vector.h:177:6
	cmp	r5, #0
	beq	.LBB9_14
.Ltmp258:
@ BB#13:
	@DEBUG_VALUE: __new_finish <- %R4
	@DEBUG_VALUE: __copy_m<float>:_Num <- %R10
	@DEBUG_VALUE: __copy_m<float>:__result <- %R6
	@DEBUG_VALUE: __copy_move_a<true, float *, float *>:__result <- %R6
	@DEBUG_VALUE: __copy_move_a2<true, float *, float *>:__result <- %R6
	@DEBUG_VALUE: copy<std::move_iterator<float *>, float *>:__result <- %R6
	@DEBUG_VALUE: __uninit_copy<std::move_iterator<float *>, float *>:__result <- %R6
	@DEBUG_VALUE: uninitialized_copy<std::move_iterator<float *>, float *>:__result <- %R6
	@DEBUG_VALUE: __uninitialized_copy_a<std::move_iterator<float *>, float *, float>:__result <- %R6
	@DEBUG_VALUE: __uninitialized_move_if_noexcept_a<float *, float *, std::allocator<float> >:__result <- %R6
	@DEBUG_VALUE: __uninitialized_move_if_noexcept_a<float *, float *, std::allocator<float> >:__first <- %R5
	@DEBUG_VALUE: __make_move_if_noexcept_iterator<float, std::move_iterator<float *> >:__i <- %R5
	@DEBUG_VALUE: move_iterator:__i <- %R5
	@DEBUG_VALUE: deallocate:__p <- %R5
	@DEBUG_VALUE: deallocate:__p <- %R5
	@DEBUG_VALUE: size:this <- %R9
	@DEBUG_VALUE: _M_deallocate:__p <- %R5
	@DEBUG_VALUE: __new_start <- %R7
	.loc	4 110 9                 @ /usr/bin/../lib/gcc/arm-linux-gnueabihf/6.3.0/../../../../include/c++/6.3.0/ext/new_allocator.h:110:9
	mov	r0, r5
	bl	_ZdlPv
.Ltmp259:
.LBB9_14:                               @ %_ZNSt12_Vector_baseIfSaIfEE13_M_deallocateEPfj.exit57
	@DEBUG_VALUE: __new_finish <- %R4
	@DEBUG_VALUE: __copy_m<float>:_Num <- %R10
	@DEBUG_VALUE: __copy_m<float>:__result <- %R6
	@DEBUG_VALUE: __copy_move_a<true, float *, float *>:__result <- %R6
	@DEBUG_VALUE: __copy_move_a2<true, float *, float *>:__result <- %R6
	@DEBUG_VALUE: copy<std::move_iterator<float *>, float *>:__result <- %R6
	@DEBUG_VALUE: __uninit_copy<std::move_iterator<float *>, float *>:__result <- %R6
	@DEBUG_VALUE: uninitialized_copy<std::move_iterator<float *>, float *>:__result <- %R6
	@DEBUG_VALUE: __uninitialized_copy_a<std::move_iterator<float *>, float *, float>:__result <- %R6
	@DEBUG_VALUE: __uninitialized_move_if_noexcept_a<float *, float *, std::allocator<float> >:__result <- %R6
	@DEBUG_VALUE: __uninitialized_move_if_noexcept_a<float *, float *, std::allocator<float> >:__first <- %R5
	@DEBUG_VALUE: __make_move_if_noexcept_iterator<float, std::move_iterator<float *> >:__i <- %R5
	@DEBUG_VALUE: move_iterator:__i <- %R5
	@DEBUG_VALUE: deallocate:__p <- %R5
	@DEBUG_VALUE: deallocate:__p <- %R5
	@DEBUG_VALUE: size:this <- %R9
	@DEBUG_VALUE: _M_deallocate:__p <- %R5
	@DEBUG_VALUE: __new_start <- %R7
	.loc	24 532 54               @ /usr/bin/../lib/gcc/arm-linux-gnueabihf/6.3.0/../../../../include/c++/6.3.0/bits/vector.tcc:532:54
	ldr	r0, [sp]                @ 4-byte Reload
	.loc	24 530 31               @ /usr/bin/../lib/gcc/arm-linux-gnueabihf/6.3.0/../../../../include/c++/6.3.0/bits/vector.tcc:530:31
	str	r7, [r9]
	.loc	24 531 32               @ /usr/bin/../lib/gcc/arm-linux-gnueabihf/6.3.0/../../../../include/c++/6.3.0/bits/vector.tcc:531:32
	str	r4, [r9, #4]
	.loc	24 532 54               @ /usr/bin/../lib/gcc/arm-linux-gnueabihf/6.3.0/../../../../include/c++/6.3.0/bits/vector.tcc:532:54
	add	r0, r7, r0, lsl #2
	.loc	24 532 40 is_stmt 0     @ /usr/bin/../lib/gcc/arm-linux-gnueabihf/6.3.0/../../../../include/c++/6.3.0/bits/vector.tcc:532:40
	str	r0, [r9, #8]
	b	.LBB9_29
.Ltmp260:
.LBB9_15:
	@DEBUG_VALUE: _M_fill_insert:this <- %R9
	@DEBUG_VALUE: _M_fill_insert:__x <- %R8
	@DEBUG_VALUE: _M_fill_insert:__n <- %R10
	.loc	9 962 27 is_stmt 1      @ /usr/bin/../lib/gcc/arm-linux-gnueabihf/6.3.0/../../../../include/c++/6.3.0/bits/stl_iterator.h:962:27
	sub	r2, r7, r4
.Ltmp261:
	.loc	24 457 30               @ /usr/bin/../lib/gcc/arm-linux-gnueabihf/6.3.0/../../../../include/c++/6.3.0/bits/vector.tcc:457:30
	ldr	r6, [r8]
.Ltmp262:
	.loc	9 962 27                @ /usr/bin/../lib/gcc/arm-linux-gnueabihf/6.3.0/../../../../include/c++/6.3.0/bits/stl_iterator.h:962:27
	asr	r5, r2, #2
.Ltmp263:
	@DEBUG_VALUE: __elems_after <- %R5
	.loc	24 460 12               @ /usr/bin/../lib/gcc/arm-linux-gnueabihf/6.3.0/../../../../include/c++/6.3.0/bits/vector.tcc:460:12
	cmp	r5, r10
	bls	.LBB9_21
.Ltmp264:
@ BB#16:
	@DEBUG_VALUE: __elems_after <- %R5
	@DEBUG_VALUE: _M_fill_insert:this <- %R9
	@DEBUG_VALUE: _M_fill_insert:__x <- %R8
	@DEBUG_VALUE: _M_fill_insert:__n <- %R10
	.loc	24 462 57               @ /usr/bin/../lib/gcc/arm-linux-gnueabihf/6.3.0/../../../../include/c++/6.3.0/bits/vector.tcc:462:57
	sub	r8, r7, r10, lsl #2
.Ltmp265:
	@DEBUG_VALUE: __copy_move_a<true, float *, float *>:__simple <- 1
	@DEBUG_VALUE: uninitialized_copy<std::move_iterator<float *>, float *>:__assignable <- 1
	@DEBUG_VALUE: make_move_iterator<float *>:__i <- %R8
	@DEBUG_VALUE: __uninitialized_move_a<float *, float *, std::allocator<float> >:__first <- %R8
	@DEBUG_VALUE: move_backward<float *, float *>:__last <- %R8
	@DEBUG_VALUE: __copy_move_backward_a2<true, float *, float *>:__last <- %R8
	@DEBUG_VALUE: __copy_move_backward_a<true, float *, float *>:__last <- %R8
	@DEBUG_VALUE: __copy_move_b<float>:__last <- %R8
	mov	r1, #0
	lsl	r5, r10, #2
.Ltmp266:
	.loc	24 466 29               @ /usr/bin/../lib/gcc/arm-linux-gnueabihf/6.3.0/../../../../include/c++/6.3.0/bits/vector.tcc:466:29
	mov	r0, r7
.Ltmp267:
	.loc	25 367 8                @ /usr/bin/../lib/gcc/arm-linux-gnueabihf/6.3.0/../../../../include/c++/6.3.0/bits/stl_algobase.h:367:8
	cmp	r1, r10, lsl #2
.Ltmp268:
	@DEBUG_VALUE: move_iterator:__i <- %R8
	beq	.LBB9_18
.Ltmp269:
@ BB#17:
	@DEBUG_VALUE: move_iterator:__i <- %R8
	@DEBUG_VALUE: __copy_move_b<float>:__last <- %R8
	@DEBUG_VALUE: __copy_move_backward_a<true, float *, float *>:__last <- %R8
	@DEBUG_VALUE: __copy_move_backward_a2<true, float *, float *>:__last <- %R8
	@DEBUG_VALUE: move_backward<float *, float *>:__last <- %R8
	@DEBUG_VALUE: __uninitialized_move_a<float *, float *, std::allocator<float> >:__first <- %R8
	@DEBUG_VALUE: make_move_iterator<float *>:__i <- %R8
	@DEBUG_VALUE: _M_fill_insert:this <- %R9
	@DEBUG_VALUE: _M_fill_insert:__n <- %R10
	.loc	25 368 6                @ /usr/bin/../lib/gcc/arm-linux-gnueabihf/6.3.0/../../../../include/c++/6.3.0/bits/stl_algobase.h:368:6
	mov	r0, r7
	mov	r1, r8
	mov	r2, r5
	bl	memmove
.Ltmp270:
	.loc	24 466 29               @ /usr/bin/../lib/gcc/arm-linux-gnueabihf/6.3.0/../../../../include/c++/6.3.0/bits/vector.tcc:466:29
	ldr	r0, [r9, #4]
	mov	r1, #0
.Ltmp271:
.LBB9_18:                               @ %_ZSt22__uninitialized_move_aIPfS0_SaIfEET0_T_S3_S2_RT1_.exit
	@DEBUG_VALUE: move_iterator:__i <- %R8
	@DEBUG_VALUE: __copy_move_b<float>:__last <- %R8
	@DEBUG_VALUE: __copy_move_backward_a<true, float *, float *>:__last <- %R8
	@DEBUG_VALUE: __copy_move_backward_a2<true, float *, float *>:__last <- %R8
	@DEBUG_VALUE: move_backward<float *, float *>:__last <- %R8
	@DEBUG_VALUE: __uninitialized_move_a<float *, float *, std::allocator<float> >:__first <- %R8
	@DEBUG_VALUE: make_move_iterator<float *>:__i <- %R8
	@DEBUG_VALUE: _M_fill_insert:this <- %R9
	@DEBUG_VALUE: _M_fill_insert:__n <- %R10
	.loc	25 568 34               @ /usr/bin/../lib/gcc/arm-linux-gnueabihf/6.3.0/../../../../include/c++/6.3.0/bits/stl_algobase.h:568:34
	sub	r2, r8, r4
.Ltmp272:
	.loc	24 466 29               @ /usr/bin/../lib/gcc/arm-linux-gnueabihf/6.3.0/../../../../include/c++/6.3.0/bits/vector.tcc:466:29
	add	r0, r0, r10, lsl #2
.Ltmp273:
	@DEBUG_VALUE: __copy_move_backward_a<true, float *, float *>:__simple <- 1
	str	r0, [r9, #4]
.Ltmp274:
	.loc	25 569 8                @ /usr/bin/../lib/gcc/arm-linux-gnueabihf/6.3.0/../../../../include/c++/6.3.0/bits/stl_algobase.h:569:8
	cmp	r1, r2, asr #2
	beq	.LBB9_20
.Ltmp275:
@ BB#19:
	@DEBUG_VALUE: move_iterator:__i <- %R8
	@DEBUG_VALUE: __copy_move_b<float>:__last <- %R8
	@DEBUG_VALUE: __copy_move_backward_a<true, float *, float *>:__last <- %R8
	@DEBUG_VALUE: __copy_move_backward_a2<true, float *, float *>:__last <- %R8
	@DEBUG_VALUE: move_backward<float *, float *>:__last <- %R8
	@DEBUG_VALUE: __uninitialized_move_a<float *, float *, std::allocator<float> >:__first <- %R8
	@DEBUG_VALUE: make_move_iterator<float *>:__i <- %R8
	@DEBUG_VALUE: _M_fill_insert:this <- %R9
	@DEBUG_VALUE: _M_fill_insert:__n <- %R10
	.loc	25 568 34               @ /usr/bin/../lib/gcc/arm-linux-gnueabihf/6.3.0/../../../../include/c++/6.3.0/bits/stl_algobase.h:568:34
	asr	r0, r2, #2
.Ltmp276:
	@DEBUG_VALUE: __copy_move_b<float>:_Num <- %R0
	.loc	25 570 6                @ /usr/bin/../lib/gcc/arm-linux-gnueabihf/6.3.0/../../../../include/c++/6.3.0/bits/stl_algobase.h:570:6
	mov	r1, r4
.Ltmp277:
	.loc	25 571 20               @ /usr/bin/../lib/gcc/arm-linux-gnueabihf/6.3.0/../../../../include/c++/6.3.0/bits/stl_algobase.h:571:20
	sub	r0, r7, r0, lsl #2
.Ltmp278:
	.loc	25 570 6                @ /usr/bin/../lib/gcc/arm-linux-gnueabihf/6.3.0/../../../../include/c++/6.3.0/bits/stl_algobase.h:570:6
	bl	memmove
.Ltmp279:
.LBB9_20:                               @ %.lr.ph.i.i68
                                        @ =>This Inner Loop Header: Depth=1
	.loc	25 696 11               @ /usr/bin/../lib/gcc/arm-linux-gnueabihf/6.3.0/../../../../include/c++/6.3.0/bits/stl_algobase.h:696:11
	str	r6, [r4], #4
.Ltmp280:
	@DEBUG_VALUE: __fill_a<float *, float>:__first <- %R4
	.loc	25 695 22 discriminator 1 @ /usr/bin/../lib/gcc/arm-linux-gnueabihf/6.3.0/../../../../include/c++/6.3.0/bits/stl_algobase.h:695:22
	subs	r5, r5, #4
	bne	.LBB9_20
	b	.LBB9_29
.Ltmp281:
.LBB9_21:
	@DEBUG_VALUE: __elems_after <- %R5
	@DEBUG_VALUE: _M_fill_insert:this <- %R9
	@DEBUG_VALUE: _M_fill_insert:__x <- %R8
	@DEBUG_VALUE: _M_fill_insert:__n <- %R10
	.loc	24 476 13               @ /usr/bin/../lib/gcc/arm-linux-gnueabihf/6.3.0/../../../../include/c++/6.3.0/bits/vector.tcc:476:13
	subs	r1, r10, r5
.Ltmp282:
	@DEBUG_VALUE: __niter <- %R1
	@DEBUG_VALUE: __fill_n_a<float *, unsigned int, float>:__n <- %R1
	@DEBUG_VALUE: fill_n<float *, unsigned int, float>:__n <- %R1
	@DEBUG_VALUE: __uninit_fill_n<float *, unsigned int, float>:__n <- %R1
	@DEBUG_VALUE: uninitialized_fill_n<float *, unsigned int, float>:__assignable <- 1
	@DEBUG_VALUE: uninitialized_fill_n<float *, unsigned int, float>:__n <- %R1
	@DEBUG_VALUE: __uninitialized_fill_n_a<float *, unsigned int, float, float>:__n <- %R1
	.loc	25 789 18 discriminator 1 @ /usr/bin/../lib/gcc/arm-linux-gnueabihf/6.3.0/../../../../include/c++/6.3.0/bits/stl_algobase.h:789:18
	mov	r0, r7
	beq	.LBB9_25
.Ltmp283:
@ BB#22:                                @ %.lr.ph.i.i.i.i.i64.preheader
	@DEBUG_VALUE: __uninitialized_fill_n_a<float *, unsigned int, float, float>:__n <- %R1
	@DEBUG_VALUE: uninitialized_fill_n<float *, unsigned int, float>:__n <- %R1
	@DEBUG_VALUE: __uninit_fill_n<float *, unsigned int, float>:__n <- %R1
	@DEBUG_VALUE: fill_n<float *, unsigned int, float>:__n <- %R1
	@DEBUG_VALUE: __fill_n_a<float *, unsigned int, float>:__n <- %R1
	@DEBUG_VALUE: __niter <- %R1
	@DEBUG_VALUE: __elems_after <- %R5
	@DEBUG_VALUE: _M_fill_insert:this <- %R9
	@DEBUG_VALUE: _M_fill_insert:__x <- %R8
	@DEBUG_VALUE: _M_fill_insert:__n <- %R10
	.loc	25 754 11               @ /usr/bin/../lib/gcc/arm-linux-gnueabihf/6.3.0/../../../../include/c++/6.3.0/bits/stl_algobase.h:754:11
	sub	r0, r5, r10
.Ltmp284:
	.loc	25 789 18 discriminator 1 @ /usr/bin/../lib/gcc/arm-linux-gnueabihf/6.3.0/../../../../include/c++/6.3.0/bits/stl_algobase.h:789:18
	mov	r3, r7
.Ltmp285:
.LBB9_23:                               @ %.lr.ph.i.i.i.i.i64
                                        @ =>This Inner Loop Header: Depth=1
	.loc	25 754 11               @ /usr/bin/../lib/gcc/arm-linux-gnueabihf/6.3.0/../../../../include/c++/6.3.0/bits/stl_algobase.h:754:11
	str	r6, [r3], #4
.Ltmp286:
	@DEBUG_VALUE: __fill_n_a<float *, unsigned int, float>:__first <- %R3
	.loc	25 753 13               @ /usr/bin/../lib/gcc/arm-linux-gnueabihf/6.3.0/../../../../include/c++/6.3.0/bits/stl_algobase.h:753:13
	adds	r0, r0, #1
.Ltmp287:
	.loc	25 752 7 discriminator 1 @ /usr/bin/../lib/gcc/arm-linux-gnueabihf/6.3.0/../../../../include/c++/6.3.0/bits/stl_algobase.h:752:7
	bne	.LBB9_23
.Ltmp288:
@ BB#24:                                @ %._crit_edge.loopexit.i.i.i.i.i61
	@DEBUG_VALUE: __fill_n_a<float *, unsigned int, float>:__first <- %R3
	.loc	25 754 11               @ /usr/bin/../lib/gcc/arm-linux-gnueabihf/6.3.0/../../../../include/c++/6.3.0/bits/stl_algobase.h:754:11
	add	r0, r7, r1, lsl #2
.Ltmp289:
.LBB9_25:                               @ %_ZSt24__uninitialized_fill_n_aIPfjffET_S1_T0_RKT1_RSaIT2_E.exit66
	@DEBUG_VALUE: __uninitialized_move_a<float *, float *, std::allocator<float> >:__result <- %R0
	@DEBUG_VALUE: uninitialized_copy<std::move_iterator<float *>, float *>:__assignable <- 1
	@DEBUG_VALUE: __copy_move_a<true, float *, float *>:__simple <- 1
	.loc	24 474 29               @ /usr/bin/../lib/gcc/arm-linux-gnueabihf/6.3.0/../../../../include/c++/6.3.0/bits/vector.tcc:474:29
	str	r0, [r9, #4]
.Ltmp290:
	.loc	25 367 8                @ /usr/bin/../lib/gcc/arm-linux-gnueabihf/6.3.0/../../../../include/c++/6.3.0/bits/stl_algobase.h:367:8
	cmp	r2, #0
	beq	.LBB9_27
.Ltmp291:
@ BB#26:
	@DEBUG_VALUE: __uninitialized_move_a<float *, float *, std::allocator<float> >:__result <- %R0
	.loc	25 368 6                @ /usr/bin/../lib/gcc/arm-linux-gnueabihf/6.3.0/../../../../include/c++/6.3.0/bits/stl_algobase.h:368:6
	mov	r1, r4
	bl	memmove
.Ltmp292:
	.loc	24 482 29               @ /usr/bin/../lib/gcc/arm-linux-gnueabihf/6.3.0/../../../../include/c++/6.3.0/bits/vector.tcc:482:29
	ldr	r0, [r9, #4]
.LBB9_27:                               @ %_ZSt22__uninitialized_move_aIPfS0_SaIfEET0_T_S3_S2_RT1_.exit59
	add	r0, r0, r5, lsl #2
	str	r0, [r9, #4]
.Ltmp293:
	.loc	25 695 7 discriminator 1 @ /usr/bin/../lib/gcc/arm-linux-gnueabihf/6.3.0/../../../../include/c++/6.3.0/bits/stl_algobase.h:695:7
	cmp	r4, r7
	beq	.LBB9_29
.LBB9_28:                               @ %.lr.ph.i.i
                                        @ =>This Inner Loop Header: Depth=1
	.loc	25 696 11               @ /usr/bin/../lib/gcc/arm-linux-gnueabihf/6.3.0/../../../../include/c++/6.3.0/bits/stl_algobase.h:696:11
	str	r6, [r4], #4
.Ltmp294:
	@DEBUG_VALUE: __fill_a<float *, float>:__first <- %R4
	.loc	25 695 7 discriminator 1 @ /usr/bin/../lib/gcc/arm-linux-gnueabihf/6.3.0/../../../../include/c++/6.3.0/bits/stl_algobase.h:695:7
	cmp	r7, r4
	bne	.LBB9_28
.Ltmp295:
.LBB9_29:                               @ %_ZSt4fillIPffEvT_S1_RKT0_.exit69
	.loc	24 535 5 discriminator 2 @ /usr/bin/../lib/gcc/arm-linux-gnueabihf/6.3.0/../../../../include/c++/6.3.0/bits/vector.tcc:535:5
	sub	sp, r11, #28
	pop	{r4, r5, r6, r7, r8, r9, r10, r11, pc}
.LBB9_30:
.Ltmp296:
	@DEBUG_VALUE: _M_check_len:__n <- %R10
	@DEBUG_VALUE: size:this <- %R9
	@DEBUG_VALUE: _M_fill_insert:this <- %R9
	@DEBUG_VALUE: _M_fill_insert:__x <- %R8
	@DEBUG_VALUE: _M_fill_insert:__n <- %R10
	.loc	8 1423 4                @ /usr/bin/../lib/gcc/arm-linux-gnueabihf/6.3.0/../../../../include/c++/6.3.0/bits/stl_vector.h:1423:4
	movw	r0, :lower16:.L.str
	movt	r0, :upper16:.L.str
.Ltmp297:
	@DEBUG_VALUE: _M_check_len:__s <- %R0
	mov	lr, pc
	b	_ZSt20__throw_length_errorPKc
.Ltmp298:
.LBB9_31:
	@DEBUG_VALUE: _M_check_len:__len <- %R0
	@DEBUG_VALUE: allocate:__n <- %R6
	@DEBUG_VALUE: allocate:__n <- %R6
	@DEBUG_VALUE: _M_allocate:__n <- %R6
	@DEBUG_VALUE: __len <- %R6
	@DEBUG_VALUE: _M_check_len:__n <- %R10
	@DEBUG_VALUE: size:this <- %R9
	@DEBUG_VALUE: _M_fill_insert:this <- %R9
	@DEBUG_VALUE: _M_fill_insert:__x <- %R8
	@DEBUG_VALUE: _M_fill_insert:__n <- %R10
	.loc	4 102 4                 @ /usr/bin/../lib/gcc/arm-linux-gnueabihf/6.3.0/../../../../include/c++/6.3.0/ext/new_allocator.h:102:4
	mov	lr, pc
	b	_ZSt17__throw_bad_allocv
.Ltmp299:
.Lfunc_end9:
	.size	_ZNSt6vectorIfSaIfEE14_M_fill_insertEN9__gnu_cxx17__normal_iteratorIPfS1_EEjRKf, .Lfunc_end9-_ZNSt6vectorIfSaIfEE14_M_fill_insertEN9__gnu_cxx17__normal_iteratorIPfS1_EEjRKf
	.cfi_endproc
	.file	26 "/usr/bin/../lib/gcc/arm-linux-gnueabihf/6.3.0/../../../../include/c++/6.3.0/ext" "type_traits.h"
	.file	27 "/usr/bin/../lib/gcc/arm-linux-gnueabihf/6.3.0/../../../../include/c++/6.3.0/bits" "stl_uninitialized.h"
	.fnend

	.type	.L.str,%object          @ @.str
	.section	.rodata.str1.1,"aMS",%progbits,1
.L.str:
	.asciz	"vector::_M_fill_insert"
	.size	.L.str, 23

	.section	".note.GNU-stack","",%progbits
	.eabi_attribute	30, 2	@ Tag_ABI_optimization_goals