	.text
	.syntax unified
	.eabi_attribute	67, "2.09"	@ Tag_conformance
	.cpu	cortex-a8
	.eabi_attribute	6, 10	@ Tag_CPU_arch
	.eabi_attribute	7, 65	@ Tag_CPU_arch_profile
	.eabi_attribute	8, 1	@ Tag_ARM_ISA_use
	.eabi_attribute	9, 2	@ Tag_THUMB_ISA_use
	.fpu	neon
	.eabi_attribute	17, 1	@ Tag_ABI_PCS_GOT_use
	.eabi_attribute	20, 2	@ Tag_ABI_FP_denormal
	.eabi_attribute	23, 1	@ Tag_ABI_FP_number_model
	.eabi_attribute	34, 1	@ Tag_CPU_unaligned_access
	.eabi_attribute	24, 1	@ Tag_ABI_align_needed
	.eabi_attribute	25, 1	@ Tag_ABI_align_preserved
	.eabi_attribute	28, 1	@ Tag_ABI_VFP_args
	.eabi_attribute	38, 1	@ Tag_ABI_FP_16bit_format
	.eabi_attribute	18, 4	@ Tag_ABI_PCS_wchar_t
	.eabi_attribute	26, 2	@ Tag_ABI_enum_size
	.eabi_attribute	14, 0	@ Tag_ABI_PCS_R9_use
	.eabi_attribute	68, 1	@ Tag_Virtualization_use
	.file	"/root/Bela/projects/vintage_effect/build/Wobble.bc"
	.file	1 "/usr/bin/../lib/gcc/arm-linux-gnueabihf/6.3.0/../../../../include/arm-linux-gnueabihf/c++/6.3.0/bits" "c++config.h"
	.file	2 "/usr/include/arm-linux-gnueabihf/bits" "math-finite.h"
	.file	3 "/usr/include/arm-linux-gnueabihf/bits" "mathcalls.h"
	.file	4 "/usr/include/arm-linux-gnueabihf/bits" "mathdef.h"
	.globl	_ZN6WobbleC2Ev
	.p2align	4
	.type	_ZN6WobbleC2Ev,%function
_ZN6WobbleC2Ev:                         @ @_ZN6WobbleC2Ev
.Lfunc_begin0:
	.file	5 "/root/Bela/projects/vintage_effect" "Wobble.cpp"
	.loc	5 8 0                   @ /root/Bela/projects/vintage_effect/Wobble.cpp:8:0
	.fnstart
	.cfi_startproc
@ BB#0:
	.save	{r4, r10, r11, lr}
	push	{r4, r10, r11, lr}
.Ltmp0:
	.cfi_def_cfa_offset 16
.Ltmp1:
	.cfi_offset lr, -4
.Ltmp2:
	.cfi_offset r11, -8
.Ltmp3:
	.cfi_offset r10, -12
.Ltmp4:
	.cfi_offset r4, -16
	.setfp	r11, sp, #8
	add	r11, sp, #8
.Ltmp5:
	.cfi_def_cfa r11, 8
	@DEBUG_VALUE: Wobble:this <- %R0
	mov	r4, r0
.Ltmp6:
	@DEBUG_VALUE: Wobble:this <- %R4
	.loc	5 7 9 prologue_end      @ /root/Bela/projects/vintage_effect/Wobble.cpp:7:9
	bl	_ZN8LPFilterC1Ev
	adr	r0, .LCPI0_0
.Ltmp7:
	.loc	5 10 8                  @ /root/Bela/projects/vintage_effect/Wobble.cpp:10:8
	vld1.64	{d16, d17}, [r0:128]
	.loc	5 10 2 is_stmt 0        @ /root/Bela/projects/vintage_effect/Wobble.cpp:10:2
	add	r0, r4, #56
	.loc	5 10 8                  @ /root/Bela/projects/vintage_effect/Wobble.cpp:10:8
	vst1.32	{d16, d17}, [r0]
	mov	r0, #0
	.loc	5 14 7 is_stmt 1        @ /root/Bela/projects/vintage_effect/Wobble.cpp:14:7
	str	r0, [r4, #72]
.Ltmp8:
	.loc	5 15 1                  @ /root/Bela/projects/vintage_effect/Wobble.cpp:15:1
	mov	r0, r4
	pop	{r4, r10, r11, pc}
.Ltmp9:
	.p2align	4
@ BB#1:
.LCPI0_0:
	.long	1084227584              @ float 5
	.long	1065353216              @ float 1
	.long	1133903872              @ float 300
	.long	0                       @ float 0
.Lfunc_end0:
	.size	_ZN6WobbleC2Ev, .Lfunc_end0-_ZN6WobbleC2Ev
	.cfi_endproc
	.file	6 "/root/Bela/projects/vintage_effect" "LPFilter.h"
	.file	7 "/root/Bela/projects/vintage_effect" "Wobble.h"
	.fnend

	.globl	_ZN6Wobble13setSampleRateEi
	.p2align	2
	.type	_ZN6Wobble13setSampleRateEi,%function
_ZN6Wobble13setSampleRateEi:            @ @_ZN6Wobble13setSampleRateEi
.Lfunc_begin1:
	.loc	5 22 0                  @ /root/Bela/projects/vintage_effect/Wobble.cpp:22:0
	.fnstart
	.cfi_startproc
@ BB#0:
	@DEBUG_VALUE: setSampleRate:this <- %R0
	@DEBUG_VALUE: setSampleRate:rate <- %R1
	.loc	5 23 14 prologue_end    @ /root/Bela/projects/vintage_effect/Wobble.cpp:23:14
	str	r1, [r0, #52]
	.loc	5 24 6                  @ /root/Bela/projects/vintage_effect/Wobble.cpp:24:6
	b	_ZN8LPFilter13setSampleRateEi
.Ltmp10:
.Lfunc_end1:
	.size	_ZN6Wobble13setSampleRateEi, .Lfunc_end1-_ZN6Wobble13setSampleRateEi
	.cfi_endproc
	.fnend

	.globl	_ZN6Wobble6setMixEf
	.p2align	2
	.type	_ZN6Wobble6setMixEf,%function
_ZN6Wobble6setMixEf:                    @ @_ZN6Wobble6setMixEf
.Lfunc_begin2:
	.loc	5 32 0                  @ /root/Bela/projects/vintage_effect/Wobble.cpp:32:0
	.fnstart
	.cfi_startproc
@ BB#0:
	@DEBUG_VALUE: setMix:this <- %R0
	@DEBUG_VALUE: setMix:mix <- %S0
	.loc	5 33 7 prologue_end     @ /root/Bela/projects/vintage_effect/Wobble.cpp:33:7
	vstr	s0, [r0, #72]
	.loc	5 34 1                  @ /root/Bela/projects/vintage_effect/Wobble.cpp:34:1
	bx	lr
.Ltmp11:
.Lfunc_end2:
	.size	_ZN6Wobble6setMixEf, .Lfunc_end2-_ZN6Wobble6setMixEf
	.cfi_endproc
	.fnend

	.globl	_ZN6Wobble7setRateEf
	.p2align	2
	.type	_ZN6Wobble7setRateEf,%function
_ZN6Wobble7setRateEf:                   @ @_ZN6Wobble7setRateEf
.Lfunc_begin3:
	.loc	5 41 0                  @ /root/Bela/projects/vintage_effect/Wobble.cpp:41:0
	.fnstart
	.cfi_startproc
@ BB#0:
	@DEBUG_VALUE: setRate:this <- %R0
	@DEBUG_VALUE: setRate:r <- %S0
	.loc	5 42 8 prologue_end     @ /root/Bela/projects/vintage_effect/Wobble.cpp:42:8
	vstr	s0, [r0, #56]
	.loc	5 43 1                  @ /root/Bela/projects/vintage_effect/Wobble.cpp:43:1
	bx	lr
.Ltmp12:
.Lfunc_end3:
	.size	_ZN6Wobble7setRateEf, .Lfunc_end3-_ZN6Wobble7setRateEf
	.cfi_endproc
	.fnend

	.globl	_ZN6Wobble8setDepthEf
	.p2align	2
	.type	_ZN6Wobble8setDepthEf,%function
_ZN6Wobble8setDepthEf:                  @ @_ZN6Wobble8setDepthEf
.Lfunc_begin4:
	.loc	5 50 0                  @ /root/Bela/projects/vintage_effect/Wobble.cpp:50:0
	.fnstart
	.cfi_startproc
@ BB#0:
	@DEBUG_VALUE: setDepth:this <- %R0
	@DEBUG_VALUE: setDepth:depth <- %S0
	.loc	5 51 9 prologue_end     @ /root/Bela/projects/vintage_effect/Wobble.cpp:51:9
	vstr	s0, [r0, #60]
	.loc	5 52 1                  @ /root/Bela/projects/vintage_effect/Wobble.cpp:52:1
	bx	lr
.Ltmp13:
.Lfunc_end4:
	.size	_ZN6Wobble8setDepthEf, .Lfunc_end4-_ZN6Wobble8setDepthEf
	.cfi_endproc
	.fnend

	.globl	_ZN6Wobble7processEf
	.p2align	3
	.type	_ZN6Wobble7processEf,%function
_ZN6Wobble7processEf:                   @ @_ZN6Wobble7processEf
.Lfunc_begin5:
	.loc	5 59 0                  @ /root/Bela/projects/vintage_effect/Wobble.cpp:59:0
	.fnstart
	.cfi_startproc
@ BB#0:
	.save	{r4, r10, r11, lr}
	push	{r4, r10, r11, lr}
.Ltmp14:
	.cfi_def_cfa_offset 16
.Ltmp15:
	.cfi_offset lr, -4
.Ltmp16:
	.cfi_offset r11, -8
.Ltmp17:
	.cfi_offset r10, -12
.Ltmp18:
	.cfi_offset r4, -16
	.setfp	r11, sp, #8
	add	r11, sp, #8
.Ltmp19:
	.cfi_def_cfa r11, 8
	.vsave	{d8, d9, d10, d11}
	vpush	{d8, d9, d10, d11}
.Ltmp20:
	.cfi_offset d11, -24
.Ltmp21:
	.cfi_offset d10, -32
.Ltmp22:
	.cfi_offset d9, -40
.Ltmp23:
	.cfi_offset d8, -48
	@DEBUG_VALUE: process:this <- %R0
	@DEBUG_VALUE: process:in <- %S0
	mov	r4, r0
.Ltmp24:
	@DEBUG_VALUE: process:out <- 0.000000e+00
	@DEBUG_VALUE: process:this <- %R4
	vmov.f32	s16, s0
.Ltmp25:
	@DEBUG_VALUE: process:in <- %S16
	.loc	5 61 54 prologue_end    @ /root/Bela/projects/vintage_effect/Wobble.cpp:61:54
	vldr	s1, [r4, #64]
	.loc	5 61 32 is_stmt 0 discriminator 1 @ /root/Bela/projects/vintage_effect/Wobble.cpp:61:32
	bl	_ZN8LPFilter17getFilteredSampleEff
	.loc	5 64 21 is_stmt 1       @ /root/Bela/projects/vintage_effect/Wobble.cpp:64:21
	vldr	s2, [r4, #52]
	.loc	5 61 32 discriminator 1 @ /root/Bela/projects/vintage_effect/Wobble.cpp:61:32
	vorr	d9, d0, d0
.Ltmp26:
	@DEBUG_VALUE: process:filteredSample <- %S18
	.loc	5 63 64                 @ /root/Bela/projects/vintage_effect/Wobble.cpp:63:64
	vldr	s0, [r4, #56]
	.loc	5 63 72 is_stmt 0       @ /root/Bela/projects/vintage_effect/Wobble.cpp:63:72
	vldr	s4, [r4, #68]
	.loc	5 63 20                 @ /root/Bela/projects/vintage_effect/Wobble.cpp:63:20
	vldr	s20, [r4, #60]
	.loc	5 64 21 is_stmt 1       @ /root/Bela/projects/vintage_effect/Wobble.cpp:64:21
	vcvt.f64.s32	d16, s2
	.loc	5 64 19 is_stmt 0       @ /root/Bela/projects/vintage_effect/Wobble.cpp:64:19
	vmov.f64	d11, #1.000000e+00
	vdiv.f64	d16, d11, d16
	.loc	5 63 64 is_stmt 1       @ /root/Bela/projects/vintage_effect/Wobble.cpp:63:64
	vcvt.f64.f32	d17, s0
	.loc	5 63 62 is_stmt 0       @ /root/Bela/projects/vintage_effect/Wobble.cpp:63:62
	vldr	d18, .LCPI5_0
	.loc	5 63 72                 @ /root/Bela/projects/vintage_effect/Wobble.cpp:63:72
	vcvt.f64.f32	d19, s4
	.loc	5 63 62                 @ /root/Bela/projects/vintage_effect/Wobble.cpp:63:62
	vmul.f64	d17, d17, d18
	.loc	5 64 12 is_stmt 1       @ /root/Bela/projects/vintage_effect/Wobble.cpp:64:12
	vadd.f64	d16, d16, d19
	.loc	5 63 70                 @ /root/Bela/projects/vintage_effect/Wobble.cpp:63:70
	vmul.f64	d0, d17, d19
	.loc	5 64 12                 @ /root/Bela/projects/vintage_effect/Wobble.cpp:64:12
	vcvt.f32.f64	s2, d16
	vstr	s2, [r4, #68]
	.loc	5 63 29 discriminator 1 @ /root/Bela/projects/vintage_effect/Wobble.cpp:63:29
	bl	sin
	.loc	5 63 20 is_stmt 0       @ /root/Bela/projects/vintage_effect/Wobble.cpp:63:20
	vcvt.f64.f32	d16, s20
	.loc	5 63 27                 @ /root/Bela/projects/vintage_effect/Wobble.cpp:63:27
	vmul.f64	d16, d0, d16
	.loc	5 65 18 is_stmt 1       @ /root/Bela/projects/vintage_effect/Wobble.cpp:65:18
	vldr	s2, [r4, #72]
	.loc	5 63 20                 @ /root/Bela/projects/vintage_effect/Wobble.cpp:63:20
	vcvt.f32.f64	s0, d16
.Ltmp27:
	@DEBUG_VALUE: process:wobble <- %S0
	.loc	5 65 18                 @ /root/Bela/projects/vintage_effect/Wobble.cpp:65:18
	vcvt.f64.f32	d17, s2
	.loc	5 65 16 is_stmt 0       @ /root/Bela/projects/vintage_effect/Wobble.cpp:65:16
	vsub.f64	d17, d11, d17
	.loc	5 65 26                 @ /root/Bela/projects/vintage_effect/Wobble.cpp:65:26
	vcvt.f64.f32	d18, s16
	.loc	5 65 24                 @ /root/Bela/projects/vintage_effect/Wobble.cpp:65:24
	vmul.f64	d16, d17, d18
	.loc	5 65 53                 @ /root/Bela/projects/vintage_effect/Wobble.cpp:65:53
	vadd.f32	d17, d0, d9
	.loc	5 65 35                 @ /root/Bela/projects/vintage_effect/Wobble.cpp:65:35
	vmul.f32	d0, d1, d17
.Ltmp28:
	.loc	5 65 31                 @ /root/Bela/projects/vintage_effect/Wobble.cpp:65:31
	vcvt.f64.f32	d17, s0
	.loc	5 65 29                 @ /root/Bela/projects/vintage_effect/Wobble.cpp:65:29
	vadd.f64	d16, d16, d17
	.loc	5 65 11                 @ /root/Bela/projects/vintage_effect/Wobble.cpp:65:11
	vcvt.f32.f64	s0, d16
.Ltmp29:
	@DEBUG_VALUE: process:out <- %S0
	.loc	5 66 5 is_stmt 1        @ /root/Bela/projects/vintage_effect/Wobble.cpp:66:5
	vpop	{d8, d9, d10, d11}
.Ltmp30:
	pop	{r4, r10, r11, pc}
.Ltmp31:
	.p2align	3
@ BB#1:
.LCPI5_0:
	.long	1413754136              @ double 6.2831853071795862
	.long	1075388923
.Lfunc_end5:
	.size	_ZN6Wobble7processEf, .Lfunc_end5-_ZN6Wobble7processEf
	.cfi_endproc
	.fnend

	.globl	_ZN6WobbleD2Ev
	.p2align	2
	.type	_ZN6WobbleD2Ev,%function
_ZN6WobbleD2Ev:                         @ @_ZN6WobbleD2Ev
.Lfunc_begin6:
	.loc	5 73 0                  @ /root/Bela/projects/vintage_effect/Wobble.cpp:73:0
	.fnstart
	.cfi_startproc
@ BB#0:
	@DEBUG_VALUE: ~Wobble:this <- %R0
	.loc	5 75 1 prologue_end     @ /root/Bela/projects/vintage_effect/Wobble.cpp:75:1
	b	_ZN8LPFilterD1Ev
.Ltmp32:
.Lfunc_end6:
	.size	_ZN6WobbleD2Ev, .Lfunc_end6-_ZN6WobbleD2Ev
	.cfi_endproc
	.fnend

	.section	".note.GNU-stack","",%progbits
	.eabi_attribute	30, 2	@ Tag_ABI_optimization_goals